MPASM 5.84  /USERS/CRAIG/MPLABXPROJECTS/AC-D   8-10-2019  21:35:39         PAGE  1


LOC  OBJECT CODE     LINE SOURCE TEXT
  VALUE

                      00001 ;TODO - Test interrupts on device
                      00002 ;TODO - Refactor ports used to match 8 pin package
                      00003 ;       EUSART shares ICSP pins RA0/RA1
                      00004 ;       ZCD remains the same RA2
                      00005 ;       CH0/1 remains the same RA4/RA5
                      00006     
                      00007 #include "p16lf15323.inc"
                      00001         LIST
                      00002 
                      00003 ;==========================================================================
                      00004 ; Build date : Mar 17 2019
                      00005 ;  MPASM PIC16LF15323 processor include
                      00006 ; 
                      00007 ;  (c) Copyright 1999-2019 Microchip Technology, All rights reserved
                      00008 ;==========================================================================
                      00009 
                      03538         LIST
                      00008 #include "AC-Dimmer.inc"
                      00001 
                      00002 #define CH0_REG LATA
                      00003 #define CH1_REG LATA
                      00004 #define CH0_BIT LATA4
                      00005 #define CH1_BIT LATA5
                      00006     
                      00007 #define CMP_16_GT 1
                      00008 #define CMP_16_EQ 2
                      00009 #define CMP_16_LT 4
                      00010     
                      00011 #define CMP_16_GT_BIT 0
                      00012 #define CMP_16_EQ_BIT 1
                      00013 #define CMP_16_LT_BIT 2
                      00014 
                      00015 #define MAX_DELAY .8192
                      00016     
                      00017 #define DELAY_MAX_H 
                      00018     
                      00019 #define CMD_ACK a'K'
                      00020 #define CMD_NACK a'N'
                      00021     
                      00022 #define CMD_START a'S'
                      00023 #define CMD_STOP a'P'
                      00024 
                      00025 #define CMD_SET_CH0 .0
                      00026 #define CMD_SET_CH1 .1
                      00027 #define CMD_ACTIVATE .2
                      00028 #define CMD_MAX .2
                      00009     
                      00010 BANK0_VARS udata 0x0020 ;20-6F
0020                  00011 Ch0Delay        res 2 ;20
0022                  00012 Ch1Delay        res 2 ;22
                      00013         
0024                  00014 Tmp16a          res 2 ;24
0026                  00015 Tmp16b          res 2 ;26
MPASM 5.84  /USERS/CRAIG/MPLABXPROJECTS/AC-D   8-10-2019  21:35:39         PAGE  2


LOC  OBJECT CODE     LINE SOURCE TEXT
  VALUE

                      00016                 
0028                  00017 Cmd             res 1 ;28
0029                  00018 CmdVal          res 2 ;29
002B                  00019 RcvCnt          res 1 ;2B
002C                  00020 Rx              res 1 ;2C
                      00021         
                      00022                 
                      00023 SHARED_VARS udata_shr
0000                  00024 Tmp0            res 1 ;1
0001                  00025 Tmp1            res 1 ;2
0002                  00026 Tmp2            res 1 ;3
                      00027         
0003                  00028 Delay0          res 2 ;5
0005                  00029 Delay1          res 2 ;7
0007                  00030 Delay2          res 2 ;9
                      00031         
0009                  00032 TurnOn0         res 1 ;A
000A                  00033 TurnOn1         res 1 ;B
000B                  00034 AlwaysOn        res 1 ;C
000C                  00035 CurrentDelay    res 1 ;D
000D                  00036 TurnOffDelay    res 1 ;E
                      00037 
                      00038 ;Load16 - load the 16 bit literal h,l into v
                      00039 ;Bank for v must be selected
                      00040 Load16 macro Va, La
                      00041     movlw high La
                      00042     movwf Va+.1
                      00043     movlw low La
                      00044     movwf Va
                      00045     endm
                      00046     
                      00047 ;Copy16 - copy the 16 bit variable Vb into Va
                      00048 ;Va and Vb must be in the same bank and it must be selected
                      00049 Copy16 macro Va, Vb
                      00050     movf Vb, w
                      00051     movwf Va
                      00052     movf Vb+.1, w
                      00053     movwf Va+.1
                      00054     endm
                      00055         
                      00056 RESET_VECT CODE 0x0000
0000   2???           00057    goto START
                      00058    
                      00059 ISR_VECT CODE 0x0004
0004                  00060 ISR:
0004   014E           00061     banksel PIR2 ;Bank 14
                      00062 ;    btfss PIR2, ZCDIF
Message[302]: Register in operand not in bank 0.  Ensure that bank bits are correct.
0005   1E0C           00063     btfss PIR0, IOCIF
0006   2???           00064     goto ISR_NO_ZCD
Message[302]: Register in operand not in bank 0.  Ensure that bank bits are correct.
0007   130E           00065     bcf PIR2, ZCDIF
0008   014B           00066     banksel TMR0H ;Bank 11
MPASM 5.84  /USERS/CRAIG/MPLABXPROJECTS/AC-D   8-10-2019  21:35:39         PAGE  3


LOC  OBJECT CODE     LINE SOURCE TEXT
  VALUE

0009   08??           00067     movf Delay0+.1, w
Message[302]: Register in operand not in bank 0.  Ensure that bank bits are correct.
000A   009D           00068     movwf TMR0H
000B   08??           00069     movf Delay0, w
Message[302]: Register in operand not in bank 0.  Ensure that bank bits are correct.
000C   009C           00070     movwf TMR0L
000D   01??           00071     clrf CurrentDelay
000E   017E           00072     banksel IOCCF
Message[302]: Register in operand not in bank 0.  Ensure that bank bits are correct.
000F   1055           00073     bcf IOCCF, IOCCF0
0010   0009           00074     retfie
0011                  00075 ISR_NO_ZCD:
                      00076     ;banksel PIR0 ;Bank 14
Message[302]: Register in operand not in bank 0.  Ensure that bank bits are correct.
0011   128C           00077     bcf PIR0, TMR0IF
0012   08??           00078     movf CurrentDelay, w
0013   0A??           00079     incf CurrentDelay, f
0014   014B           00080     banksel TMR0H
0015   000B           00081     brw
0016   2???           00082     goto ISR_CD_0
0017   2???           00083     goto ISR_CD_1
0018                  00084 ISR_CD_2:
                      00085     ;banksel TMR0H ;Bank 11
Message[302]: Register in operand not in bank 0.  Ensure that bank bits are correct.
0018   019D           00086     clrf TMR0H
Message[302]: Register in operand not in bank 0.  Ensure that bank bits are correct.
0019   019C           00087     clrf TMR0L
001A   0140           00088     banksel CH0_REG ;Bank 0
001B   1C00           00089     btfss AlwaysOn, 0
001C   1218           00090     bcf CH0_REG, CH0_BIT
001D   1C80           00091     btfss AlwaysOn, 1
001E   1298           00092     bcf CH1_REG, CH1_BIT
001F   0009           00093     retfie
0020                  00094 ISR_CD_1:
                      00095     ;banksel TMR0H ;Bank 11
0020   08??           00096     movf Delay2+.1, w
Message[302]: Register in operand not in bank 0.  Ensure that bank bits are correct.
0021   009D           00097     movwf TMR0H
0022   08??           00098     movf Delay2, w
Message[302]: Register in operand not in bank 0.  Ensure that bank bits are correct.
0023   009C           00099     movwf TMR0L
0024   0140           00100     banksel CH0_REG ;Bank 0
0025   1800           00101     btfsc TurnOn1, 0
0026   1618           00102     bsf CH0_REG, CH0_BIT
0027   1880           00103     btfsc TurnOn1, 1
0028   1698           00104     bsf CH1_REG, CH1_BIT
0029   1C00           00105     btfss TurnOffDelay, 0
002A   0009           00106     retfie
002B   1C00           00107     btfss AlwaysOn, 0
002C   1218           00108     bcf CH0_REG, CH0_BIT
002D   1C80           00109     btfss AlwaysOn, 1
002E   1298           00110     bcf CH1_REG, CH1_BIT
002F   0009           00111     retfie
MPASM 5.84  /USERS/CRAIG/MPLABXPROJECTS/AC-D   8-10-2019  21:35:39         PAGE  4


LOC  OBJECT CODE     LINE SOURCE TEXT
  VALUE

0030                  00112 ISR_CD_0:
                      00113     ;banksel TMR0H ;Bank 11
0030   08??           00114     movf Delay1+.1, w
Message[302]: Register in operand not in bank 0.  Ensure that bank bits are correct.
0031   009D           00115     movwf TMR0H
0032   08??           00116     movf Delay1, w
Message[302]: Register in operand not in bank 0.  Ensure that bank bits are correct.
0033   009C           00117     movwf TMR0L
0034   0140           00118     banksel CH0_REG ;Bank 0
0035   1800           00119     btfsc TurnOn0, 0
0036   1618           00120     bsf CH0_REG, CH0_BIT
0037   1880           00121     btfsc TurnOn0, 1
0038   1698           00122     bsf CH1_REG, CH1_BIT
0039   0009           00123     retfie
                      00124 ;End interrupt routine
                      00125 
                      00126 ;nibbleToHex
                      00127 ;Parameter nibble passed in wreg
                      00128 ;Return passed in wreg
                      00129 ;Uses Tmp0 (nibble) and Tmp1 (return)
003A                  00130 nibbleToHex:
003A   00??           00131     movwf Tmp0 ;Nibble value
003B   3030           00132     movlw a'0'
003C   00??           00133     movwf Tmp1 ;Temporary return value
003D   300A           00134     movlw .10
003E   02??           00135     subwf Tmp0, w ;nibble value - 10
003F   1C03           00136     btfss STATUS, C ;carry means no borrow so nibble value >= 10
0040   2???           00137     goto UNDER_10
0041   00??           00138     movwf Tmp0 ;wreg already contains nibble-10
0042   3041           00139     movlw a'A'
0043   00??           00140     movwf Tmp1
0044                  00141 UNDER_10:
0044   08??           00142     movf Tmp0, w
0045   07??           00143     addwf Tmp1, w
0046   0008           00144     return
                      00145 ;End nibbleToHex
                      00146    
                      00147 ;sendChar
                      00148 ;Parameter c passed in wreg
0047                  00149 sendChar:
0047   014E           00150     banksel PIR3 ; Bank 14
0048                  00151 WAIT:
Message[302]: Register in operand not in bank 0.  Ensure that bank bits are correct.
0048   1E0F           00152     btfss PIR3, TX1IF
0049   2???           00153     goto WAIT ;Loop until TX1IF is set and we're ready to write
                      00154     
004A   0142           00155     banksel TX1REG ; Bank 2
Message[302]: Register in operand not in bank 0.  Ensure that bank bits are correct.
004B   009A           00156     movwf TX1REG
004C   0008           00157     return
                      00158     
                      00159 ;sendInt
                      00160 ;Parameter i passed in wreg
MPASM 5.84  /USERS/CRAIG/MPLABXPROJECTS/AC-D   8-10-2019  21:35:39         PAGE  5


LOC  OBJECT CODE     LINE SOURCE TEXT
  VALUE

                      00161 ;Uses Tmp2 i
                      00162 ;NIBBLE_TO_HEX uses Tmp0, Tmp1
004D                  00163 sendInt:
004D   00??           00164     movwf Tmp2
004E   0E??           00165     swapf Tmp2, w
004F   390F           00166     andlw 0x0F
0050   2???           00167     call nibbleToHex
0051   2???           00168     call sendChar
0052   08??           00169     movf Tmp2, w
0053   390F           00170     andlw 0x0F
0054   2???           00171     call nibbleToHex
0055   2???           00172     call sendChar
0056   0008           00173     return
                      00174     
                      00175 ;hexToNibble
                      00176 ;Parameter h passed in wreg
                      00177 ;Return value in wreg
                      00178 ;Uses Tmp0 (h parameter)
0057                  00179 hexToNibble:
0057   00??           00180     movwf Tmp0 ;h
0058   3041           00181     movlw a'A'
0059   02??           00182     subwf Tmp0, w ; h - 'A'
005A   1803           00183     btfsc STATUS, C ; C clear means borrow or 'A' > h
005B   2???           00184     goto ALPHA_HEX_H
005C   3030           00185     movlw a'0'
005D   02??           00186     subwf Tmp0, w ; h - '0'
005E   0008           00187     return
005F                  00188 ALPHA_HEX_H:
005F   3E0A           00189     addlw .10 ; Add 10 for A-F, w already contained h - 'A'
0060   0008           00190     return
                      00191 ;End hexToNibble
                      00192 
                      00193 ;compare16s
                      00194 ;Parameters passed in Tmp16a/b
                      00195 ;Return value passed in w using CMP_16_* bits
                      00196 ;Must have Tmp16a/b bank selected when calling
                      00197 ;Compares a to b so a > b = CMP_16_GT and a < b = CMP_16_LT
0061                  00198 compare16s:
0061   08??           00199     movf Tmp16b+.1, w
0062   02??           00200     subwf Tmp16a+.1, w ;w = Tmp16aH-Tmp16bH
0063   1D03           00201     btfss STATUS, Z
0064   2???           00202     goto CMP_16_NE ;Zero clear means highs weren't equal
0065   08??           00203     movf Tmp16b, w
0066   02??           00204     subwf Tmp16a, w ;w = Tmp16aL-Tmp16bL
0067   1903           00205     btfsc STATUS, Z
0068   3402           00206     retlw CMP_16_EQ ;Zero now means highs and lows both equal
0069                  00207 CMP_16_NE:
0069   1803           00208     btfsc STATUS, C
006A   3401           00209     retlw CMP_16_GT ;Carry set means no borrow so a > b
006B   3404           00210     retlw CMP_16_LT ;Carry clear means borrow so b > a
                      00211     
                      00212 ;Cmp16VtoV - Compare 16 bit var to 16 bit var
                      00213 ;Va and Vb must be in same bank as Tmp16a/b and that bank must be selected
MPASM 5.84  /USERS/CRAIG/MPLABXPROJECTS/AC-D   8-10-2019  21:35:39         PAGE  6


LOC  OBJECT CODE     LINE SOURCE TEXT
  VALUE

                      00214 Cmp16VtoV macro Va, Vb
                      00215     Copy16 Tmp16a, Va
                      00216     Copy16 Tmp16b, Vb
                      00217     call compare16s
                      00218     endm
                      00219     
                      00220 ;Cmp16VtoL - Compare 16 bit var to 16 bit literal
                      00221 ;Va must be in the same bank as Tmp16a/b and that bank must be selected
                      00222 Cmp16VtoL macro Va, Lb
                      00223     Copy16 Tmp16a, Va
                      00224     Load16 Tmp16b, Lb
                      00225     call compare16s
                      00226     endm
                      00227     
                      00228 ;Cmp16LtoL - Compare 16 bit literal to 16 bit literal
                      00229 ;Tmp16a/b bank must be selected
                      00230 Cmp16LtoL macro La, Lb
                      00231     Load16 Tmp16a, La
                      00232     Load16 Tmp16b, Lb
                      00233     call compare16s
                      00234     endm
                      00235 
                      00236 ;Sub16ReVmV - Subtract 16 bit variable from 16 bit variable
                      00237 ;Result is stored in R
                      00238 Sub16ReVmV macro R, Va, Vb
                      00239     movf Vb, w
                      00240     subwf Va, w
                      00241     movwf R ;RL = VaL - VbL
                      00242     movf Vb+.1, w
                      00243     subwfb Va+.1, w
                      00244     movwf R+.1 ;RH = VaH - VbH - B
                      00245     endm
                      00246     
                      00247 ;Sub16ReLmV - Subtract 16 bit variable from 16 bit literal
                      00248 ;Result is stored in R
                      00249 ;Uses Tmp0
                      00250 Sub16ReLmV macro R, L, V
                      00251     movlw low L
                      00252     movwf Tmp0
                      00253     movf V, w
                      00254     subwf Tmp0, w
                      00255     movwf R ;RL = LL - VL
                      00256     movlw high L
                      00257     movwf Tmp0
                      00258     movf V+.1, w
                      00259     subwfb Tmp0, w
                      00260     movwf R+.1 ;RH = LH - VH - B
                      00261     endm
                      00262 
                      00263 ;complementDelays
006C                  00264 complementDelays:
006C   09??           00265     comf Delay0, f
006D   09??           00266     comf Delay0+.1, f
MPASM 5.84  /USERS/CRAIG/MPLABXPROJECTS/AC-D   8-10-2019  21:35:39         PAGE  7


LOC  OBJECT CODE     LINE SOURCE TEXT
  VALUE

006E   09??           00267     comf Delay1, f
006F   09??           00268     comf Delay1+.1, f
0070   09??           00269     comf Delay2, f
0071   09??           00270     comf Delay2+.1, f
0072   0008           00271     return
                      00272     
                      00273 ;updateDelays
                      00274 ;No parameters
                      00275 ;No return value
0073                  00276 updateDelays:
                      00277     ;Disable interrupts
0073   138B           00278     bcf INTCON, GIE
                      00279     
                      00280     ;Disable timer 0 in case we don't need it after this
0074   014B           00281     banksel T0CON0 ;Bank 11
Message[302]: Register in operand not in bank 0.  Ensure that bank bits are correct.
0075   139E           00282     bcf T0CON0, T0EN
                      00283     
                      00284     ;Clear some stuff
                      00285     ;banksel TurnOn0 ;Shared Bank
0076   01??           00286     clrf TurnOffDelay
0077   01??           00287     clrf TurnOn0
0078   01??           00288     clrf TurnOn1
0079   01??           00289     clrf AlwaysOn
007A   01??           00290     clrf Delay0
007B   01??           00291     clrf Delay0+.1
007C   01??           00292     clrf Delay1
007D   01??           00293     clrf Delay1+.1
007E   01??           00294     clrf Delay2
007F   01??           00295     clrf Delay2+.1
                      00296     
0080   2???           00297     call complementDelays
                      00298     
                      00299     ;If Ch0Delay == 0
0081   014?           00300     banksel Ch0Delay ;Bank 0
                      00301     Cmp16VtoL Ch0Delay, .0
                          M     Copy16 Tmp16a, Ch0Delay
0082   08??               M     movf Ch0Delay, w
0083   00??               M     movwf Tmp16a
0084   08??               M     movf Ch0Delay+.1, w
0085   00??               M     movwf Tmp16a+.1
                          M     Load16 Tmp16b, .0
0086   3000               M     movlw high .0
0087   00??               M     movwf Tmp16b+.1
0088   3000               M     movlw low .0
0089   00??               M     movwf Tmp16b
008A   2???               M     call compare16s
008B   1C89           00302     btfss WREG, CMP_16_EQ_BIT
008C   2???           00303     goto UD_CH0_NE_0
                      00304     ;Ch0Delay == 0 so it is always on
008D   1400           00305     bsf AlwaysOn, 0
                      00306     ;banksel CH0_REG ;Bank 0
008E   1618           00307     bsf CH0_REG, CH0_BIT
MPASM 5.84  /USERS/CRAIG/MPLABXPROJECTS/AC-D   8-10-2019  21:35:39         PAGE  8


LOC  OBJECT CODE     LINE SOURCE TEXT
  VALUE

                      00308     ;If Ch1Delay == 0
                      00309     Cmp16VtoL Ch1Delay, .0
                          M     Copy16 Tmp16a, Ch1Delay
008F   08??               M     movf Ch1Delay, w
0090   00??               M     movwf Tmp16a
0091   08??               M     movf Ch1Delay+.1, w
0092   00??               M     movwf Tmp16a+.1
                          M     Load16 Tmp16b, .0
0093   3000               M     movlw high .0
0094   00??               M     movwf Tmp16b+.1
0095   3000               M     movlw low .0
0096   00??               M     movwf Tmp16b
0097   2???               M     call compare16s
0098   1C89           00310     btfss WREG, CMP_16_EQ_BIT
0099   2???           00311     goto UD_CH1_NE_0
                      00312     ;Ch1Delay == 0 so it is always on
009A   1480           00313     bsf AlwaysOn, 1
                      00314     ;banksel CH1_REG ;Bank 0
009B   1698           00315     bsf CH1_REG, CH1_BIT
                      00316     ;Both Channels are always on, might as well return now
009C   0008           00317     return
009D                  00318 UD_CH1_NE_0:
                      00319     ;Check if Ch1 is Max
                      00320     Cmp16VtoL Ch1Delay, MAX_DELAY
                          M     Copy16 Tmp16a, Ch1Delay
009D   08??               M     movf Ch1Delay, w
009E   00??               M     movwf Tmp16a
009F   08??               M     movf Ch1Delay+.1, w
00A0   00??               M     movwf Tmp16a+.1
                          M     Load16 Tmp16b, .8192
00A1   3020               M     movlw high .8192
00A2   00??               M     movwf Tmp16b+.1
00A3   3000               M     movlw low .8192
00A4   00??               M     movwf Tmp16b
00A5   2???               M     call compare16s
00A6   1889           00321     btfsc WREG, CMP_16_EQ_BIT
00A7   0008           00322     return
                      00323     ;Ch0Delay == 0 and Ch1Delay != 0
                      00324     Copy16 Delay0, Ch1Delay
00A8   08??               M     movf Ch1Delay, w
00A9   00??               M     movwf Delay0
00AA   08??               M     movf Ch1Delay+.1, w
00AB   00??               M     movwf Delay0+.1
00AC   1480           00325     bsf TurnOn0, 1
                      00326     Sub16ReLmV Delay1, MAX_DELAY, Ch1Delay
00AD   3000               M     movlw low .8192
00AE   00??               M     movwf Tmp0
00AF   08??               M     movf Ch1Delay, w
00B0   02??               M     subwf Tmp0, w
00B1   00??               M     movwf Delay1 ;RL = LL - VL
00B2   3020               M     movlw high .8192
00B3   00??               M     movwf Tmp0
00B4   08??               M     movf Ch1Delay+.1, w
MPASM 5.84  /USERS/CRAIG/MPLABXPROJECTS/AC-D   8-10-2019  21:35:39         PAGE  9


LOC  OBJECT CODE     LINE SOURCE TEXT
  VALUE

00B5   3B??               M     subwfb Tmp0, w
00B6   00??               M     movwf Delay1+.1 ;RH = LH - VH - B
00B7   1400           00327     bsf TurnOffDelay, 0
00B8   2???           00328     goto UD_ENDING
00B9                  00329 UD_CH0_NE_0:
                      00330     ;If Ch1Delay == 0
                      00331     Cmp16VtoL Ch1Delay, .0
                          M     Copy16 Tmp16a, Ch1Delay
00B9   08??               M     movf Ch1Delay, w
00BA   00??               M     movwf Tmp16a
00BB   08??               M     movf Ch1Delay+.1, w
00BC   00??               M     movwf Tmp16a+.1
                          M     Load16 Tmp16b, .0
00BD   3000               M     movlw high .0
00BE   00??               M     movwf Tmp16b+.1
00BF   3000               M     movlw low .0
00C0   00??               M     movwf Tmp16b
00C1   2???               M     call compare16s
00C2   1C89           00332     btfss WREG, CMP_16_EQ_BIT
00C3   2???           00333     goto UD_BOTH_NE_0
                      00334     ;Ch1Delay == 0 so it is always on
00C4   1480           00335     bsf AlwaysOn, 1
                      00336     ;banksel CH1_REG ;Bank 0
00C5   1698           00337     bsf CH1_REG, CH1_BIT
                      00338     ;Check if Ch0 is Max
                      00339     Cmp16VtoL Ch0Delay, MAX_DELAY
                          M     Copy16 Tmp16a, Ch0Delay
00C6   08??               M     movf Ch0Delay, w
00C7   00??               M     movwf Tmp16a
00C8   08??               M     movf Ch0Delay+.1, w
00C9   00??               M     movwf Tmp16a+.1
                          M     Load16 Tmp16b, .8192
00CA   3020               M     movlw high .8192
00CB   00??               M     movwf Tmp16b+.1
00CC   3000               M     movlw low .8192
00CD   00??               M     movwf Tmp16b
00CE   2???               M     call compare16s
00CF   1889           00340     btfsc WREG, CMP_16_EQ_BIT
00D0   0008           00341     return
                      00342     ;Ch0Delay != 0 so setup delays
                      00343     Copy16 Delay0, Ch0Delay
00D1   08??               M     movf Ch0Delay, w
00D2   00??               M     movwf Delay0
00D3   08??               M     movf Ch0Delay+.1, w
00D4   00??               M     movwf Delay0+.1
00D5   1400           00344     bsf TurnOn0, 0
                      00345     Sub16ReLmV Delay1, MAX_DELAY, Ch0Delay
00D6   3000               M     movlw low .8192
00D7   00??               M     movwf Tmp0
00D8   08??               M     movf Ch0Delay, w
00D9   02??               M     subwf Tmp0, w
00DA   00??               M     movwf Delay1 ;RL = LL - VL
00DB   3020               M     movlw high .8192
MPASM 5.84  /USERS/CRAIG/MPLABXPROJECTS/AC-D   8-10-2019  21:35:39         PAGE 10


LOC  OBJECT CODE     LINE SOURCE TEXT
  VALUE

00DC   00??               M     movwf Tmp0
00DD   08??               M     movf Ch0Delay+.1, w
00DE   3B??               M     subwfb Tmp0, w
00DF   00??               M     movwf Delay1+.1 ;RH = LH - VH - B
00E0   1400           00346     bsf TurnOffDelay, 0
00E1   2???           00347     goto UD_ENDING
00E2                  00348 UD_BOTH_NE_0:
                      00349     ;If Ch0Delay == Ch1Delay
                      00350     Cmp16VtoV Ch0Delay, Ch1Delay
                          M     Copy16 Tmp16a, Ch0Delay
00E2   08??               M     movf Ch0Delay, w
00E3   00??               M     movwf Tmp16a
00E4   08??               M     movf Ch0Delay+.1, w
00E5   00??               M     movwf Tmp16a+.1
                          M     Copy16 Tmp16b, Ch1Delay
00E6   08??               M     movf Ch1Delay, w
00E7   00??               M     movwf Tmp16b
00E8   08??               M     movf Ch1Delay+.1, w
00E9   00??               M     movwf Tmp16b+.1
00EA   2???               M     call compare16s
00EB   1C89           00351     btfss WREG, CMP_16_EQ_BIT
00EC   2???           00352     goto UD_CH0_NE_CH1
                      00353     Cmp16VtoL Ch0Delay, MAX_DELAY
                          M     Copy16 Tmp16a, Ch0Delay
00ED   08??               M     movf Ch0Delay, w
00EE   00??               M     movwf Tmp16a
00EF   08??               M     movf Ch0Delay+.1, w
00F0   00??               M     movwf Tmp16a+.1
                          M     Load16 Tmp16b, .8192
00F1   3020               M     movlw high .8192
00F2   00??               M     movwf Tmp16b+.1
00F3   3000               M     movlw low .8192
00F4   00??               M     movwf Tmp16b
00F5   2???               M     call compare16s
00F6   1889           00354     btfsc WREG, CMP_16_EQ_BIT
00F7   2???           00355     goto UD_BOTH_MAX
                      00356     Copy16 Delay0, Ch0Delay
00F8   08??               M     movf Ch0Delay, w
00F9   00??               M     movwf Delay0
00FA   08??               M     movf Ch0Delay+.1, w
00FB   00??               M     movwf Delay0+.1
00FC   1400           00357     bsf TurnOn0, 0
00FD   1480           00358     bsf TurnOn0, 1
                      00359     Sub16ReLmV Delay1, MAX_DELAY, Ch0Delay
00FE   3000               M     movlw low .8192
00FF   00??               M     movwf Tmp0
0100   08??               M     movf Ch0Delay, w
0101   02??               M     subwf Tmp0, w
0102   00??               M     movwf Delay1 ;RL = LL - VL
0103   3020               M     movlw high .8192
0104   00??               M     movwf Tmp0
0105   08??               M     movf Ch0Delay+.1, w
0106   3B??               M     subwfb Tmp0, w
MPASM 5.84  /USERS/CRAIG/MPLABXPROJECTS/AC-D   8-10-2019  21:35:39         PAGE 11


LOC  OBJECT CODE     LINE SOURCE TEXT
  VALUE

0107   00??               M     movwf Delay1+.1 ;RH = LH - VH - B
0108   1400           00360     bsf TurnOffDelay, 0
0109   2???           00361     goto UD_ENDING
010A                  00362 UD_BOTH_MAX:
                      00363     ;Both channels are always off, lets turn them off and be done with this
                      00364     ;banksel CH0_REG ;Bank 0
010A   1218           00365     bcf CH0_REG, CH0_BIT
010B   1298           00366     bcf CH1_REG, CH1_BIT
010C   0008           00367     return
010D                  00368 UD_CH0_NE_CH1:
                      00369     ;WREG still contains results of CH0Delay cmp to Ch1Delay
010D   1C09           00370     btfss WREG, CMP_16_GT_BIT
010E   2???           00371     goto UD_CH0_LT_CH1
                      00372     ;Ch0Delay > Ch1Delay
                      00373     Copy16 Delay0, Ch1Delay
010F   08??               M     movf Ch1Delay, w
0110   00??               M     movwf Delay0
0111   08??               M     movf Ch1Delay+.1, w
0112   00??               M     movwf Delay0+.1
0113   1480           00374     bsf TurnOn0, 1
                      00375     Cmp16VtoL Ch0Delay, MAX_DELAY
                          M     Copy16 Tmp16a, Ch0Delay
0114   08??               M     movf Ch0Delay, w
0115   00??               M     movwf Tmp16a
0116   08??               M     movf Ch0Delay+.1, w
0117   00??               M     movwf Tmp16a+.1
                          M     Load16 Tmp16b, .8192
0118   3020               M     movlw high .8192
0119   00??               M     movwf Tmp16b+.1
011A   3000               M     movlw low .8192
011B   00??               M     movwf Tmp16b
011C   2???               M     call compare16s
011D   1889           00376     btfsc WREG, CMP_16_EQ_BIT
011E   2???           00377     goto UD_CH0_NE_CH1_MAX
                      00378     Sub16ReVmV Delay1, Ch0Delay, Ch1Delay
011F   08??               M     movf Ch1Delay, w
0120   02??               M     subwf Ch0Delay, w
0121   00??               M     movwf Delay1 ;RL = VaL - VbL
0122   08??               M     movf Ch1Delay+.1, w
0123   3B??               M     subwfb Ch0Delay+.1, w
0124   00??               M     movwf Delay1+.1 ;RH = VaH - VbH - B
0125   1400           00379     bsf TurnOn1, 0
                      00380     Sub16ReLmV Delay2, MAX_DELAY, Ch0Delay
0126   3000               M     movlw low .8192
0127   00??               M     movwf Tmp0
0128   08??               M     movf Ch0Delay, w
0129   02??               M     subwf Tmp0, w
012A   00??               M     movwf Delay2 ;RL = LL - VL
012B   3020               M     movlw high .8192
012C   00??               M     movwf Tmp0
012D   08??               M     movf Ch0Delay+.1, w
012E   3B??               M     subwfb Tmp0, w
012F   00??               M     movwf Delay2+.1 ;RH = LH - VH - B
MPASM 5.84  /USERS/CRAIG/MPLABXPROJECTS/AC-D   8-10-2019  21:35:39         PAGE 12


LOC  OBJECT CODE     LINE SOURCE TEXT
  VALUE

0130   2???           00381     goto UD_ENDING
0131                  00382 UD_CH0_LT_CH1:
                      00383     ;Ch1Delay > Ch0Delay
                      00384     Copy16 Delay0, Ch0Delay
0131   08??               M     movf Ch0Delay, w
0132   00??               M     movwf Delay0
0133   08??               M     movf Ch0Delay+.1, w
0134   00??               M     movwf Delay0+.1
0135   1400           00385     bsf TurnOn0, 0
                      00386     Cmp16VtoL Ch1Delay, MAX_DELAY
                          M     Copy16 Tmp16a, Ch1Delay
0136   08??               M     movf Ch1Delay, w
0137   00??               M     movwf Tmp16a
0138   08??               M     movf Ch1Delay+.1, w
0139   00??               M     movwf Tmp16a+.1
                          M     Load16 Tmp16b, .8192
013A   3020               M     movlw high .8192
013B   00??               M     movwf Tmp16b+.1
013C   3000               M     movlw low .8192
013D   00??               M     movwf Tmp16b
013E   2???               M     call compare16s
013F   1889           00387     btfsc WREG, CMP_16_EQ_BIT
0140   2???           00388     goto UD_CH0_NE_CH1_MAX
                      00389     Sub16ReVmV Delay1, Ch1Delay, Ch0Delay
0141   08??               M     movf Ch0Delay, w
0142   02??               M     subwf Ch1Delay, w
0143   00??               M     movwf Delay1 ;RL = VaL - VbL
0144   08??               M     movf Ch0Delay+.1, w
0145   3B??               M     subwfb Ch1Delay+.1, w
0146   00??               M     movwf Delay1+.1 ;RH = VaH - VbH - B
0147   1480           00390     bsf TurnOn1, 1
                      00391     Sub16ReLmV Delay2, MAX_DELAY, Ch1Delay
0148   3000               M     movlw low .8192
0149   00??               M     movwf Tmp0
014A   08??               M     movf Ch1Delay, w
014B   02??               M     subwf Tmp0, w
014C   00??               M     movwf Delay2 ;RL = LL - VL
014D   3020               M     movlw high .8192
014E   00??               M     movwf Tmp0
014F   08??               M     movf Ch1Delay+.1, w
0150   3B??               M     subwfb Tmp0, w
0151   00??               M     movwf Delay2+.1 ;RH = LH - VH - B
0152                  00392 UD_ENDING:
0152   2???           00393     call complementDelays
                      00394     
                      00395     ;Clear timer to ensure it won't immediately roll over
0153   014B           00396     banksel TMR0H ;Bank 11
Message[302]: Register in operand not in bank 0.  Ensure that bank bits are correct.
0154   019D           00397     clrf TMR0H
Message[302]: Register in operand not in bank 0.  Ensure that bank bits are correct.
0155   019C           00398     clrf TMR0L
Message[302]: Register in operand not in bank 0.  Ensure that bank bits are correct.
0156   179E           00399     bsf T0CON0, T0EN
MPASM 5.84  /USERS/CRAIG/MPLABXPROJECTS/AC-D   8-10-2019  21:35:39         PAGE 13


LOC  OBJECT CODE     LINE SOURCE TEXT
  VALUE

                      00400     
                      00401     ;Clear any interrupts which occurred while we were processing
0157   014E           00402     banksel PIR0 ;Bank 14
Message[302]: Register in operand not in bank 0.  Ensure that bank bits are correct.
0158   128C           00403     bcf PIR0, TMR0IF
                      00404     ;banksel PIR2 ;Bank 14
Message[302]: Register in operand not in bank 0.  Ensure that bank bits are correct.
0159   130E           00405     bcf PIR2, ZCDIF
                      00406     
                      00407     ;Finally reenable interrupts
015A   178B           00408     bsf INTCON, GIE
015B   0008           00409     return
015C                  00410 UD_CH0_NE_CH1_MAX:
                      00411     ;Could try to add logic here to turn off output immediately, but meh
                      00412     Sub16ReLmV Delay1, MAX_DELAY, Delay0
015C   3000               M     movlw low .8192
015D   00??               M     movwf Tmp0
015E   08??               M     movf Delay0, w
015F   02??               M     subwf Tmp0, w
0160   00??               M     movwf Delay1 ;RL = LL - VL
0161   3020               M     movlw high .8192
0162   00??               M     movwf Tmp0
0163   08??               M     movf Delay0+.1, w
0164   3B??               M     subwfb Tmp0, w
0165   00??               M     movwf Delay1+.1 ;RH = LH - VH - B
0166   1400           00413     bsf TurnOffDelay, 0
0167   2???           00414     goto UD_ENDING
                      00415     
0168                  00416 START:
                      00417     ;Setup analog select registers
                      00418     ;ZCD on RA2 must have analog enabled
0168   017E           00419     banksel ANSELA ;Bank 62
Message[302]: Register in operand not in bank 0.  Ensure that bank bits are correct.
0169   01B8           00420     clrf ANSELA
Message[302]: Register in operand not in bank 0.  Ensure that bank bits are correct.
016A   01CE           00421     clrf ANSELC
Message[302]: Register in operand not in bank 0.  Ensure that bank bits are correct.
016B   1538           00422     bsf ANSELA, ANSA2
                      00423     ;Setup PPS outputs
                      00424     ;0f-EUSART TX on RC4
016C   300F           00425     movlw 0x0f
Message[302]: Register in operand not in bank 0.  Ensure that bank bits are correct.
016D   00A4           00426     movwf RC4PPS
                      00427     
                      00428     ;Setup I/O Pins, all output 0 by default
                      00429     ;RA2 is ZCD and must be input
                      00430     ;RC5 is EUSART RX
016E   0140           00431     banksel LATA; Bank 0
016F   0198           00432     clrf LATA
0170   019A           00433     clrf LATC
0171   0192           00434     clrf TRISA
0172   0194           00435     clrf TRISC
0173   1512           00436     bsf TRISA, TRISA2
MPASM 5.84  /USERS/CRAIG/MPLABXPROJECTS/AC-D   8-10-2019  21:35:39         PAGE 14


LOC  OBJECT CODE     LINE SOURCE TEXT
  VALUE

0174   1694           00437     bsf TRISC, TRISC5
0175   1414           00438     bsf TRISC, TRISC0
                      00439     
                      00440     ;Setup PPS inputs
                      00441     ;EUSART TX on RC4
                      00442     ;EUSART RX on RC5
0176   017D           00443     banksel TX1CKPPS ; Bank 61
0177   3014           00444     movlw 0x14
Message[302]: Register in operand not in bank 0.  Ensure that bank bits are correct.
0178   00CC           00445     movwf TX1CKPPS
0179   3015           00446     movlw 0x15
Message[302]: Register in operand not in bank 0.  Ensure that bank bits are correct.
017A   00CB           00447     movwf RX1DTPPS
                      00448     
                      00449     ;Setup EUSART
017B   0142           00450     banksel SP1BRGH ; Bank 2
                      00451     ;clrf SP1BRGH ; Resets to 0
                      00452     ;clrf SP1BRGL ; Resets to 0
Message[302]: Register in operand not in bank 0.  Ensure that bank bits are correct.
017C   161B           00453     bsf SP1BRGL, 4 ; 16
                      00454     ;clrf BAUD1CON ; Resets to 0
017D   3024           00455     movlw b'00100100'
Message[302]: Register in operand not in bank 0.  Ensure that bank bits are correct.
017E   009E           00456     movwf TX1STA
017F   3090           00457     movlw b'10010000'
Message[302]: Register in operand not in bank 0.  Ensure that bank bits are correct.
0180   009D           00458     movwf RC1STA
                      00459     
                      00460     ;Setup Timer 0
                      00461     ;Clk Fosc/4 8MHz
                      00462     ;Pre 1:8 1MHz or 1us period
                      00463     ;16 Bit enabled
0181   014B           00464     banksel T0CON0 ; Bank 11
                      00465     ;clrf T0CON0 ; Resets to 0
Message[302]: Register in operand not in bank 0.  Ensure that bank bits are correct.
0182   161E           00466     bsf T0CON0, T016BIT
0183   3043           00467     movlw b'01000011'
Message[302]: Register in operand not in bank 0.  Ensure that bank bits are correct.
0184   009F           00468     movwf T0CON1
                      00469     
                      00470     ;Setup ZCD
0185   0152           00471     banksel ZCDCON ; Bank 18
0186   3083           00472     movlw b'10000011'
Message[302]: Register in operand not in bank 0.  Ensure that bank bits are correct.
0187   009F           00473     movwf ZCDCON
                      00474     
                      00475     ;Setup IOC
0188   017E           00476     banksel IOCCP
Message[302]: Register in operand not in bank 0.  Ensure that bank bits are correct.
0189   1453           00477     bsf IOCCP, IOCCP0
018A   017E           00478     banksel IOCCN
Message[302]: Register in operand not in bank 0.  Ensure that bank bits are correct.
018B   1454           00479     bsf IOCCN, IOCCN0
MPASM 5.84  /USERS/CRAIG/MPLABXPROJECTS/AC-D   8-10-2019  21:35:39         PAGE 15


LOC  OBJECT CODE     LINE SOURCE TEXT
  VALUE

                      00480     
                      00481     ;Setup Interrupts Global Bank
018C   170B           00482     bsf INTCON, PEIE
                      00483     
                      00484     ;Setup Interrupts NonGlobal Bank
018D   014E           00485     banksel PIE0 ; Bank 14
Message[302]: Register in operand not in bank 0.  Ensure that bank bits are correct.
018E   1696           00486     bsf PIE0, TMR0IE
Message[302]: Register in operand not in bank 0.  Ensure that bank bits are correct.
018F   1718           00487     bsf PIE2, ZCDIE
Message[302]: Register in operand not in bank 0.  Ensure that bank bits are correct.
0190   1616           00488     bsf PIE0, IOCIE
                      00489     
0191   014?           00490     banksel RcvCnt ;Bank 0
0192   01??           00491     clrf RcvCnt
                      00492     
                      00493     ;Set max delay values to ensure outputs turned off
0193   014?           00494     banksel Ch0Delay
                      00495     Load16 Ch0Delay, MAX_DELAY
0194   3020               M     movlw high .8192
0195   00??               M     movwf Ch0Delay+.1
0196   3000               M     movlw low .8192
0197   00??               M     movwf Ch0Delay
                      00496     Load16 Ch1Delay, MAX_DELAY
0198   3020               M     movlw high .8192
0199   00??               M     movwf Ch1Delay+.1
019A   3000               M     movlw low .8192
019B   00??               M     movwf Ch1Delay
019C   2???           00497     call updateDelays
                      00498     
019D   178B           00499     bsf INTCON, GIE
                      00500     
019E                  00501 MAIN_LOOP:
019E   014E           00502     banksel PIR3 ; Bank 14
                      00503 ;Check if we have a receive byte
                      00504 ;if PIR3.RC1IF
Message[302]: Register in operand not in bank 0.  Ensure that bank bits are correct.
019F   1E8F           00505     btfss PIR3, RC1IF
01A0   2???           00506     goto CHECK_OERR
                      00507 ;We have a receive byte
                      00508 ;Check for framing error on this byte
01A1   0142           00509     banksel RC1STA ; Bank 2
Message[302]: Register in operand not in bank 0.  Ensure that bank bits are correct.
01A2   1D1D           00510     btfss RC1STA, FERR
01A3   2???           00511     goto NO_FERR
                      00512 ;Has FERR, read byte, reset receive count, send NACK
                      00513     ;banksel RC1REG ; Bank 2 already selected
Message[302]: Register in operand not in bank 0.  Ensure that bank bits are correct.
01A4   0899           00514     movf RC1REG, f
01A5   014?           00515     banksel Rx ;Bank 0
01A6   08??           00516     movf Rx, f
01A7   1D03           00517     btfss STATUS, Z
01A8   2???           00518     goto CMD_FAILED
MPASM 5.84  /USERS/CRAIG/MPLABXPROJECTS/AC-D   8-10-2019  21:35:39         PAGE 16


LOC  OBJECT CODE     LINE SOURCE TEXT
  VALUE

01A9   08??           00519     movf RcvCnt, f
01AA   1D03           00520     btfss STATUS, Z
01AB   2???           00521     goto CMD_FAILED
01AC   2???           00522     goto MAIN_LOOP
01AD                  00523 NO_FERR:
                      00524     ;banksel RC1REG ; Bank 2 already selected
Message[302]: Register in operand not in bank 0.  Ensure that bank bits are correct.
01AD   0819           00525     movf RC1REG, w
01AE   014?           00526     banksel Rx ;Bank 0
01AF   00??           00527     movwf Rx
                      00528     ;First check for Start Byte no matter RcvCnt
01B0   3053           00529     movlw CMD_START
01B1   02??           00530     subwf Rx, w
01B2   1D03           00531     btfss STATUS, Z
01B3   2???           00532     goto NOT_START_BYTE
                      00533     ;So we got a start byte, check if RcvCnt is 0
01B4   304E           00534     movlw CMD_NACK
01B5   08??           00535     movf RcvCnt, f
01B6   1D03           00536     btfss STATUS, Z
01B7   2???           00537     call sendChar ;Send NACK if RcvCnt was not 0
01B8   014?           00538     banksel RcvCnt ;Bank 0
01B9   01??           00539     clrf RcvCnt
01BA   0A??           00540     incf RcvCnt, f
01BB   2???           00541     goto MAIN_LOOP
01BC                  00542 NOT_START_BYTE:
01BC   3007           00543     movlw 0x07
01BD   05??           00544     andwf RcvCnt, w ; mask in first 3 bits just in case
01BE   0A??           00545     incf RcvCnt, f
01BF   000B           00546     brw
01C0   2???           00547     goto RCV_CNT_0
01C1   2???           00548     goto RCV_CNT_1
01C2   2???           00549     goto RCV_CNT_2
01C3   2???           00550     goto RCV_CNT_3
01C4   2???           00551     goto RCV_CNT_4
01C5   2???           00552     goto RCV_CNT_5
01C6   2???           00553     goto RCV_CNT_6
                      00554 ;Default RcvCnt 6 or 7 means we've received too much, should never happen
01C7                  00555 RCV_CNT_0:
                      00556     ;If we got here we know this isn't a start byte
                      00557     ;Check for break character
01C7   08??           00558     movf Rx, f
01C8   1D03           00559     btfss STATUS, Z
01C9   2???           00560     goto CMD_FAILED
01CA   01??           00561     clrf RcvCnt
01CB   2???           00562     goto MAIN_LOOP
01CC                  00563 RCV_CNT_1:
                      00564     ;This is the high nibble of the command byte
01CC   08??           00565     movf Rx, w
01CD   2???           00566     call hexToNibble
01CE   00??           00567     movwf Cmd
01CF   0E??           00568     swapf Cmd, f
01D0   2???           00569     goto MAIN_LOOP
01D1                  00570 RCV_CNT_2:
MPASM 5.84  /USERS/CRAIG/MPLABXPROJECTS/AC-D   8-10-2019  21:35:39         PAGE 17


LOC  OBJECT CODE     LINE SOURCE TEXT
  VALUE

                      00571     ;This is the low nibble of the command byte
01D1   08??           00572     movf Rx, w
01D2   2???           00573     call hexToNibble
01D3   07??           00574     addwf Cmd, f
                      00575     ;First check that command is within range
01D4   3003           00576     movlw CMD_MAX+.1
01D5   02??           00577     subwf Cmd, w ;Cmd - (CMD_MAX+1)
                      00578     ;This should generate Borrow or ~C if Cmd <= CMD_MAX
01D6   1803           00579     btfsc STATUS, C
01D7   2???           00580     goto CMD_FAILED ;Cmd > CMD_MAX
01D8   2???           00581     goto MAIN_LOOP ;Cmd <= CMD_MAX
01D9                  00582 RCV_CNT_3:
                      00583     ;This is the high nibble of the high param value
01D9   08??           00584     movf Rx, w
01DA   2???           00585     call hexToNibble
01DB   00??           00586     movwf CmdVal+.1
01DC   0E??           00587     swapf CmdVal+.1, f
01DD   2???           00588     goto MAIN_LOOP
01DE                  00589 RCV_CNT_4:
                      00590     ;This is the low nibble of the high param value
01DE   08??           00591     movf Rx, w
01DF   2???           00592     call hexToNibble
01E0   07??           00593     addwf CmdVal+.1, f
01E1   2???           00594     goto MAIN_LOOP
01E2                  00595 RCV_CNT_5:
                      00596     ;This is the high nibble of the low param value
01E2   08??           00597     movf Rx, w
01E3   2???           00598     call hexToNibble
01E4   00??           00599     movwf CmdVal
01E5   0E??           00600     swapf CmdVal, f
01E6   2???           00601     goto MAIN_LOOP
01E7                  00602 RCV_CNT_6:
                      00603     ;This is the low nibble of the low param value
01E7   08??           00604     movf Rx, w
01E8   2???           00605     call hexToNibble
01E9   07??           00606     addwf CmdVal, f
                      00607 ;We've already validated Cmd is <= CMD_MAX, so let's just start processing
01EA   08??           00608     movf Cmd, w
                      00609 ;Might as well do this now since all paths ahead need it
                      00610     ;banksel Ch0Delay ; Bank 0 already set
01EB   000B           00611     brw
01EC   2???           00612     goto SET_CH0
01ED   2???           00613     goto SET_CH1
                      00614 ;if more commands are added, change this to goto ACTIVATE
01EE                  00615 ACTIVATE:
01EE   2???           00616     call updateDelays
01EF   2???           00617     goto CMD_PROCESSED
01F0                  00618 SET_CH1:
                      00619     ;banksel Ch1Delay ; Bank 0 already set
                      00620     Cmp16VtoL CmdVal, MAX_DELAY
                          M     Copy16 Tmp16a, CmdVal
01F0   08??               M     movf CmdVal, w
01F1   00??               M     movwf Tmp16a
MPASM 5.84  /USERS/CRAIG/MPLABXPROJECTS/AC-D   8-10-2019  21:35:39         PAGE 18


LOC  OBJECT CODE     LINE SOURCE TEXT
  VALUE

01F2   08??               M     movf CmdVal+.1, w
01F3   00??               M     movwf Tmp16a+.1
                          M     Load16 Tmp16b, .8192
01F4   3020               M     movlw high .8192
01F5   00??               M     movwf Tmp16b+.1
01F6   3000               M     movlw low .8192
01F7   00??               M     movwf Tmp16b
01F8   2???               M     call compare16s
01F9   1809           00621     btfsc WREG, CMP_16_GT_BIT
01FA   2???           00622     goto CMD_FAILED
                      00623     Copy16 Ch1Delay, CmdVal
01FB   08??               M     movf CmdVal, w
01FC   00??               M     movwf Ch1Delay
01FD   08??               M     movf CmdVal+.1, w
01FE   00??               M     movwf Ch1Delay+.1
01FF   08??           00624     movf Ch1Delay+.1, w
0200   2???           00625     call sendInt
0201   014?           00626     banksel Ch1Delay ;Bank 0
0202   08??           00627     movf Ch1Delay, w
0203   2???           00628     call sendInt
0204   014?           00629     banksel Ch1Delay ;Bank 0
0205   2???           00630     goto CMD_PROCESSED
0206                  00631 SET_CH0:
                      00632     ;banksel Ch0Delay ; Bank 0 already set
                      00633     Cmp16VtoL CmdVal, MAX_DELAY
                          M     Copy16 Tmp16a, CmdVal
0206   08??               M     movf CmdVal, w
0207   00??               M     movwf Tmp16a
0208   08??               M     movf CmdVal+.1, w
0209   00??               M     movwf Tmp16a+.1
                          M     Load16 Tmp16b, .8192
020A   3020               M     movlw high .8192
020B   00??               M     movwf Tmp16b+.1
020C   3000               M     movlw low .8192
020D   00??               M     movwf Tmp16b
020E   2???               M     call compare16s
020F   1809           00634     btfsc WREG, CMP_16_GT_BIT
0210   2???           00635     goto CMD_FAILED
                      00636     Copy16 Ch0Delay, CmdVal
0211   08??               M     movf CmdVal, w
0212   00??               M     movwf Ch0Delay
0213   08??               M     movf CmdVal+.1, w
0214   00??               M     movwf Ch0Delay+.1
0215   08??           00637     movf Ch0Delay+.1, w
0216   2???           00638     call sendInt
0217   014?           00639     banksel Ch0Delay ;Bank 0
0218   08??           00640     movf Ch0Delay, w
0219   2???           00641     call sendInt
021A   014?           00642     banksel Ch0Delay ;Bank 0
021B   2???           00643     goto CMD_PROCESSED
                      00644 ;No receive byte, check for overflow error here
021C                  00645 CHECK_OERR:
021C   0142           00646     banksel RC1STA
MPASM 5.84  /USERS/CRAIG/MPLABXPROJECTS/AC-D   8-10-2019  21:35:39         PAGE 19


LOC  OBJECT CODE     LINE SOURCE TEXT
  VALUE

Message[302]: Register in operand not in bank 0.  Ensure that bank bits are correct.
021D   1C9D           00647     btfss RC1STA, OERR
021E   2???           00648     goto MAIN_LOOP
                      00649 ;Has OERR, send NACK and clear/reset CREN to clear OERR
021F   304E           00650     movlw CMD_NACK
0220   2???           00651     call sendChar
0221   0142           00652     banksel RC1STA
Message[302]: Register in operand not in bank 0.  Ensure that bank bits are correct.
0222   121D           00653     bcf RC1STA, CREN
Message[302]: Register in operand not in bank 0.  Ensure that bank bits are correct.
0223   161D           00654     bsf RC1STA, CREN
0224   2???           00655     goto MAIN_LOOP
                      00656 
0225                  00657 CMD_PROCESSED:
0225   304B           00658     movlw CMD_ACK
0226   2???           00659     call sendChar
0227   014?           00660     banksel RcvCnt ;Bank 0
0228   01??           00661     clrf RcvCnt
0229   2???           00662     goto MAIN_LOOP
                      00663     
022A                  00664 CMD_FAILED:
022A   304E           00665     movlw CMD_NACK
022B   2???           00666     call sendChar
022C   014?           00667     banksel RcvCnt ;Bank 0
022D   01??           00668     clrf RcvCnt
022E   2???           00669     goto MAIN_LOOP
                      00670     
                      00671     END
MPASM 5.84  /USERS/CRAIG/MPLABXPROJECTS/AC-D   8-10-2019  21:35:39         PAGE 20


SYMBOL TABLE
  LABEL                             VALUE 

ABDEN                             00000000
ABDOVF                            00000007
ACKDT                             00000005
ACKEN                             00000004
ACKSTAT                           00000006
ACKTIM                            00000007
ACTIVATE                          000001EE
ADACT                             0000009F
ADACT0                            00000000
ADACT1                            00000001
ADACT2                            00000002
ADACT3                            00000003
ADACT4                            00000004
ADACTPPS                          00001EC3
ADACTPPS0                         00000000
ADACTPPS1                         00000001
ADACTPPS2                         00000002
ADACTPPS3                         00000003
ADACTPPS4                         00000004
ADACTPPS5                         00000005
ADCMD                             00000005
ADCON0                            0000009D
ADCON1                            0000009E
ADCS0                             00000004
ADCS1                             00000005
ADCS2                             00000006
ADDEN                             00000003
ADFM                              00000007
ADFVR0                            00000000
ADFVR1                            00000001
ADIE                              00000000
ADIF                              00000000
ADMSK1                            00000001
ADMSK2                            00000002
ADMSK3                            00000003
ADMSK4                            00000004
ADMSK5                            00000005
ADOEN                             00000002
ADON                              00000000
ADOR                              00000002
ADPREF0                           00000000
ADPREF1                           00000001
ADRES                             0000009B
ADRESH                            0000009C
ADRESH0                           00000000
ADRESH1                           00000001
ADRESH2                           00000002
ADRESH3                           00000003
ADRESH4                           00000004
ADRESH5                           00000005
ADRESH6                           00000006
ADRESH7                           00000007
ADRESL                            0000009B
MPASM 5.84  /USERS/CRAIG/MPLABXPROJECTS/AC-D   8-10-2019  21:35:39         PAGE 21


SYMBOL TABLE
  LABEL                             VALUE 

ADRESL0                           00000000
ADRESL1                           00000001
ADRESL2                           00000002
ADRESL3                           00000003
ADRESL4                           00000004
ADRESL5                           00000005
ADRESL6                           00000006
ADRESL7                           00000007
ADTIF                             00000001
AHEN                              00000001
ALPHA_HEX_H                       0000005F
ANSA0                             00000000
ANSA1                             00000001
ANSA2                             00000002
ANSA4                             00000004
ANSA5                             00000005
ANSC0                             00000000
ANSC1                             00000001
ANSC2                             00000002
ANSC3                             00000003
ANSC4                             00000004
ANSC5                             00000005
ANSELA                            00001F38
ANSELC                            00001F4E
AS0E                              00000000
AS1E                              00000001
AS2E                              00000002
AS3E                              00000003
AS4E                              00000004
AlwaysOn                          0000000B
BAUD1CON                          0000011F
BAUDCON                           0000011F
BAUDCON1                          0000011F
BAUDCTL                           0000011F
BAUDCTL1                          0000011F
BCL1IE                            00000001
BCL1IF                            00000001
BF                                00000000
BOEN                              00000004
BORCON                            00000811
BORRDY                            00000000
BRG16                             00000003
BRGH                              00000002
BSR                               00000008
BSR0                              00000000
BSR1                              00000001
BSR2                              00000002
BSR3                              00000003
BSR4                              00000004
BSR5                              00000005
BSR_SHAD                          00001FE6
C                                 00000000
C1EN                              00000007
MPASM 5.84  /USERS/CRAIG/MPLABXPROJECTS/AC-D   8-10-2019  21:35:39         PAGE 22


SYMBOL TABLE
  LABEL                             VALUE 

C1HYS                             00000001
C1IE                              00000000
C1IF                              00000000
C1INTN                            00000000
C1INTP                            00000001
C1NCH0                            00000000
C1NCH1                            00000001
C1NCH2                            00000002
C1OUT_CM1CON0                     00000006
C1OUT_CMOUT                       00000000
C1OUT_CMSTAT                      00000000
C1PCH0                            00000000
C1PCH1                            00000001
C1PCH2                            00000002
C1POL                             00000004
C1SYNC                            00000000
C2EN                              00000007
C2HYS                             00000001
C2IE                              00000001
C2IF                              00000001
C2INTN                            00000000
C2INTP                            00000001
C2NCH0                            00000000
C2NCH1                            00000001
C2NCH2                            00000002
C2OUT_CM2CON0                     00000006
C2OUT_CMOUT                       00000001
C2OUT_CMSTAT                      00000001
C2PCH0                            00000000
C2PCH1                            00000001
C2PCH2                            00000002
C2POL                             00000004
C2SYNC                            00000000
CCP1CAP                           0000030F
CCP1CON                           0000030E
CCP1CTS0                          00000000
CCP1CTS1                          00000001
CCP1CTS2                          00000002
CCP1EN                            00000007
CCP1FMT                           00000004
CCP1IE                            00000000
CCP1IF                            00000000
CCP1MD                            00000000
CCP1MODE0                         00000000
CCP1MODE1                         00000001
CCP1MODE2                         00000002
CCP1MODE3                         00000003
CCP1OUT                           00000005
CCP1PPS                           00001EA1
CCP1PPS0                          00000000
CCP1PPS1                          00000001
CCP1PPS2                          00000002
CCP1PPS3                          00000003
MPASM 5.84  /USERS/CRAIG/MPLABXPROJECTS/AC-D   8-10-2019  21:35:39         PAGE 23


SYMBOL TABLE
  LABEL                             VALUE 

CCP1PPS4                          00000004
CCP1PPS5                          00000005
CCP2CAP                           00000313
CCP2CON                           00000312
CCP2CTS0                          00000000
CCP2CTS1                          00000001
CCP2CTS2                          00000002
CCP2EN                            00000007
CCP2FMT                           00000004
CCP2IE                            00000001
CCP2IF                            00000001
CCP2MD                            00000001
CCP2MODE0                         00000000
CCP2MODE1                         00000001
CCP2MODE2                         00000002
CCP2MODE3                         00000003
CCP2OUT                           00000005
CCP2PPS                           00001EA2
CCP2PPS0                          00000000
CCP2PPS1                          00000001
CCP2PPS2                          00000002
CCP2PPS3                          00000003
CCP2PPS4                          00000004
CCP2PPS5                          00000005
CCPR1                             0000030C
CCPR1H                            0000030D
CCPR1L                            0000030C
CCPR2                             00000310
CCPR2H                            00000311
CCPR2L                            00000310
CDAFVR0                           00000002
CDAFVR1                           00000003
CDIV0                             00000000
CDIV1                             00000001
CDIV2                             00000002
CDIV3                             00000003
CH0_BIT                           LATA4
CH0_REG                           LATA
CH1_BIT                           LATA5
CH1_REG                           LATA
CHECK_OERR                        0000021C
CHS0                              00000002
CHS1                              00000003
CHS2                              00000004
CHS3                              00000005
CHS4                              00000006
CHS5                              00000007
CKE                               00000006
CKP                               00000004
CKPOL                             00000006
CKPS0                             00000004
CKPS1                             00000005
CKPS2                             00000006
MPASM 5.84  /USERS/CRAIG/MPLABXPROJECTS/AC-D   8-10-2019  21:35:39         PAGE 24


SYMBOL TABLE
  LABEL                             VALUE 

CKSYNC                            00000005
CLC1CON                           00001E10
CLC1GLS0                          00001E16
CLC1GLS1                          00001E17
CLC1GLS2                          00001E18
CLC1GLS3                          00001E19
CLC1IE                            00000004
CLC1IF                            00000004
CLC1MD                            00000001
CLC1POL                           00001E11
CLC1SEL0                          00001E12
CLC1SEL1                          00001E13
CLC1SEL2                          00001E14
CLC1SEL3                          00001E15
CLC2CON                           00001E1A
CLC2GLS0                          00001E20
CLC2GLS1                          00001E21
CLC2GLS2                          00001E22
CLC2GLS3                          00001E23
CLC2IE                            00000005
CLC2IF                            00000005
CLC2MD                            00000002
CLC2POL                           00001E1B
CLC2SEL0                          00001E1C
CLC2SEL1                          00001E1D
CLC2SEL2                          00001E1E
CLC2SEL3                          00001E1F
CLC3CON                           00001E24
CLC3GLS0                          00001E2A
CLC3GLS1                          00001E2B
CLC3GLS2                          00001E2C
CLC3GLS3                          00001E2D
CLC3IE                            00000006
CLC3IF                            00000006
CLC3MD                            00000003
CLC3POL                           00001E25
CLC3SEL0                          00001E26
CLC3SEL1                          00001E27
CLC3SEL2                          00001E28
CLC3SEL3                          00001E29
CLC4CON                           00001E2E
CLC4GLS0                          00001E34
CLC4GLS1                          00001E35
CLC4GLS2                          00001E36
CLC4GLS3                          00001E37
CLC4IE                            00000007
CLC4IF                            00000007
CLC4MD                            00000004
CLC4POL                           00001E2F
CLC4SEL0                          00001E30
CLC4SEL1                          00001E31
CLC4SEL2                          00001E32
CLC4SEL3                          00001E33
MPASM 5.84  /USERS/CRAIG/MPLABXPROJECTS/AC-D   8-10-2019  21:35:39         PAGE 25


SYMBOL TABLE
  LABEL                             VALUE 

CLCDATA                           00001E0F
CLCIN0PPS                         00001EBB
CLCIN0PPS0                        00000000
CLCIN0PPS1                        00000001
CLCIN0PPS2                        00000002
CLCIN0PPS3                        00000003
CLCIN0PPS4                        00000004
CLCIN0PPS5                        00000005
CLCIN1PPS                         00001EBC
CLCIN1PPS0                        00000000
CLCIN1PPS1                        00000001
CLCIN1PPS2                        00000002
CLCIN1PPS3                        00000003
CLCIN1PPS4                        00000004
CLCIN1PPS5                        00000005
CLCIN2PPS                         00001EBD
CLCIN2PPS0                        00000000
CLCIN2PPS1                        00000001
CLCIN2PPS2                        00000002
CLCIN2PPS3                        00000003
CLCIN2PPS4                        00000004
CLCIN2PPS5                        00000005
CLCIN3PPS                         00001EBE
CLCIN3PPS0                        00000000
CLCIN3PPS1                        00000001
CLCIN3PPS2                        00000002
CLCIN3PPS3                        00000003
CLCIN3PPS4                        00000004
CLCIN3PPS5                        00000005
CLKRCLK                           00000896
CLKRCLK0                          00000000
CLKRCLK1                          00000001
CLKRCLK2                          00000002
CLKRCLK3                          00000003
CLKRCON                           00000895
CLKRDC0                           00000003
CLKRDC1                           00000004
CLKRDIV0                          00000000
CLKRDIV1                          00000001
CLKRDIV2                          00000002
CLKREN                            00000007
CLKRMD                            00000001
CM1CON0                           00000990
CM1CON1                           00000991
CM1NCH                            00000992
CM1PCH                            00000993
CM2CON0                           00000994
CM2CON1                           00000995
CM2NCH                            00000996
CM2PCH                            00000997
CMD_ACK                           a'K'
CMD_ACTIVATE                      .2
CMD_FAILED                        0000022A
MPASM 5.84  /USERS/CRAIG/MPLABXPROJECTS/AC-D   8-10-2019  21:35:39         PAGE 26


SYMBOL TABLE
  LABEL                             VALUE 

CMD_MAX                           .2
CMD_NACK                          a'N'
CMD_PROCESSED                     00000225
CMD_SET_CH0                       .0
CMD_SET_CH1                       .1
CMD_START                         a'S'
CMD_STOP                          a'P'
CMOUT                             0000098F
CMP1MD                            00000001
CMP2MD                            00000002
CMP_16_EQ                         2
CMP_16_EQ_BIT                     1
CMP_16_GT                         1
CMP_16_GT_BIT                     0
CMP_16_LT                         4
CMP_16_LT_BIT                     2
CMP_16_NE                         00000069
CMSTAT                            0000098F
COSC0                             00000004
COSC1                             00000005
COSC2                             00000006
CPUDOZE                           0000088C
CREN                              00000004
CS                                00000000
CS0                               00000000
CS1                               00000001
CS2                               00000002
CS3                               00000003
CSRC                              00000007
CSWHOLD                           00000007
CSWIE                             00000006
CSWIF                             00000006
CTS0                              00000000
CTS1                              00000001
CTS2                              00000002
CWG1AS0                           00000612
CWG1AS1                           00000613
CWG1CLKCON                        0000060C
CWG1CON0                          00000610
CWG1CON1                          00000611
CWG1CS                            00000000
CWG1DAT                           0000060D
CWG1DAT0                          00000000
CWG1DAT1                          00000001
CWG1DAT2                          00000002
CWG1DAT3                          00000003
CWG1DBF                           0000060F
CWG1DBF0                          00000000
CWG1DBF1                          00000001
CWG1DBF2                          00000002
CWG1DBF3                          00000003
CWG1DBF4                          00000004
CWG1DBF5                          00000005
MPASM 5.84  /USERS/CRAIG/MPLABXPROJECTS/AC-D   8-10-2019  21:35:39         PAGE 27


SYMBOL TABLE
  LABEL                             VALUE 

CWG1DBR                           0000060E
CWG1DBR0                          00000000
CWG1DBR1                          00000001
CWG1DBR2                          00000002
CWG1DBR3                          00000003
CWG1DBR4                          00000004
CWG1DBR5                          00000005
CWG1EN                            00000007
CWG1IE                            00000000
CWG1IF                            00000000
CWG1IN                            00000005
CWG1LD                            00000006
CWG1LSAC0                         00000002
CWG1LSAC1                         00000003
CWG1LSBD0                         00000004
CWG1LSBD1                         00000005
CWG1MD                            00000000
CWG1MODE0                         00000000
CWG1MODE1                         00000001
CWG1MODE2                         00000002
CWG1OVRA                          00000004
CWG1OVRB                          00000005
CWG1OVRC                          00000006
CWG1OVRD                          00000007
CWG1POLA                          00000000
CWG1POLB                          00000001
CWG1POLC                          00000002
CWG1POLD                          00000003
CWG1PPS                           00001EB1
CWG1PPS0                          00000000
CWG1PPS1                          00000001
CWG1PPS2                          00000002
CWG1PPS3                          00000003
CWG1PPS4                          00000004
CWG1PPS5                          00000005
CWG1REN                           00000006
CWG1SHUTDOWN                      00000007
CWG1STR                           00000614
CWG1STRA                          00000000
CWG1STRB                          00000001
CWG1STRC                          00000002
CWG1STRD                          00000003
Ch0Delay                          00000020
Ch1Delay                          00000022
Cmd                               00000028
CmdVal                            00000029
Cmp16LtoL                         
Cmp16VtoL                         
Cmp16VtoV                         
Copy16                            
CurrentDelay                      0000000C
D1N                               00000000
D1S0                              00000000
MPASM 5.84  /USERS/CRAIG/MPLABXPROJECTS/AC-D   8-10-2019  21:35:39         PAGE 28


SYMBOL TABLE
  LABEL                             VALUE 

D1S1                              00000001
D1S2                              00000002
D1S3                              00000003
D1S4                              00000004
D1S5                              00000005
D1T                               00000001
D2N                               00000002
D2S0                              00000000
D2S1                              00000001
D2S2                              00000002
D2S3                              00000003
D2S4                              00000004
D2S5                              00000005
D2T                               00000003
D3N                               00000004
D3S0                              00000000
D3S1                              00000001
D3S2                              00000002
D3S3                              00000003
D3S4                              00000004
D3S5                              00000005
D3T                               00000005
D4N                               00000006
D4S0                              00000000
D4S1                              00000001
D4S2                              00000002
D4S3                              00000003
D4S4                              00000004
D4S5                              00000005
D4T                               00000007
DAC1CON0                          0000090E
DAC1CON1                          0000090F
DAC1EN                            00000007
DAC1MD                            00000006
DAC1NSS                           00000000
DAC1OE1                           00000005
DAC1OE2                           00000004
DAC1PSS0                          00000002
DAC1PSS1                          00000003
DAC1R0                            00000000
DAC1R1                            00000001
DAC1R2                            00000002
DAC1R3                            00000003
DAC1R4                            00000004
DATA_ADDRESS                      00000005
DBF0                              00000000
DBF1                              00000001
DBF2                              00000002
DBF3                              00000003
DBF4                              00000004
DBF5                              00000005
DBR0                              00000000
DBR1                              00000001
MPASM 5.84  /USERS/CRAIG/MPLABXPROJECTS/AC-D   8-10-2019  21:35:39         PAGE 29


SYMBOL TABLE
  LABEL                             VALUE 

DBR2                              00000002
DBR3                              00000003
DBR4                              00000004
DBR5                              00000005
DC                                00000001
DC0                               00000006
DC1                               00000007
DC2                               00000000
DC3                               00000001
DC4                               00000002
DC5                               00000003
DC6                               00000004
DC7                               00000005
DC8                               00000006
DC9                               00000007
DDS1MD                            00000007
DELAY_MAX_H                       
DHEN                              00000000
DOE                               00000004
DOZE0                             00000000
DOZE1                             00000001
DOZE2                             00000002
DOZEN                             00000006
D_A                               00000005
D_NOT_A                           00000005
Delay0                            00000003
Delay1                            00000005
Delay2                            00000007
EN                                00000007
EXTOEN                            00000007
EXTOR                             00000007
F                                 00000001
FERR                              00000002
FMT                               00000004
FREE                              00000004
FSR0                              00000004
FSR0H                             00000005
FSR0H_SHAD                        00001FE9
FSR0L                             00000004
FSR0L_SHAD                        00001FE8
FSR0_SHAD                         00001FE8
FSR1                              00000006
FSR1H                             00000007
FSR1H_SHAD                        00001FEB
FSR1L                             00000006
FSR1L_SHAD                        00001FEA
FSR1_SHAD                         00001FEA
FVRCON                            0000090C
FVREN                             00000007
FVRMD                             00000006
FVRRDY                            00000006
G1EN                              00000007
G1POL                             00000000
MPASM 5.84  /USERS/CRAIG/MPLABXPROJECTS/AC-D   8-10-2019  21:35:39         PAGE 30


SYMBOL TABLE
  LABEL                             VALUE 

G2POL                             00000001
G3POL                             00000002
G4D1N                             00000000
G4D1T                             00000001
G4D2N                             00000002
G4D2T                             00000003
G4D3N                             00000004
G4D3T                             00000005
G4D4N                             00000006
G4D4T                             00000007
G4POL                             00000003
GCEN                              00000007
GE                                00000007
GGO_NOT_DONE                      00000003
GIE                               00000007
GOnDONE                           00000001
GPOL                              00000006
GSPM                              00000004
GSS0                              00000000
GSS1                              00000001
GSS2                              00000002
GSS3                              00000003
GSS4                              00000004
GTM                               00000005
GVAL                              00000002
HFFRQ0                            00000000
HFFRQ1                            00000001
HFFRQ2                            00000002
HFOEN                             00000006
HFOR                              00000006
HFTUN0                            00000000
HFTUN1                            00000001
HFTUN2                            00000002
HFTUN3                            00000003
HFTUN4                            00000004
HFTUN5                            00000005
HYS                               00000001
I2C_DAT                           00000005
I2C_READ                          00000002
I2C_START                         00000003
I2C_STOP                          00000004
IDLEN                             00000007
IN                                00000005
INDF0                             00000000
INDF1                             00000001
INLVLA                            00001F3C
INLVLA0                           00000000
INLVLA1                           00000001
INLVLA2                           00000002
INLVLA3                           00000003
INLVLA4                           00000004
INLVLA5                           00000005
INLVLC                            00001F52
MPASM 5.84  /USERS/CRAIG/MPLABXPROJECTS/AC-D   8-10-2019  21:35:39         PAGE 31


SYMBOL TABLE
  LABEL                             VALUE 

INLVLC0                           00000000
INLVLC1                           00000001
INLVLC2                           00000002
INLVLC3                           00000003
INLVLC4                           00000004
INLVLC5                           00000005
INTCON                            0000000B
INTE                              00000000
INTEDG                            00000000
INTF                              00000000
INTN_CLC1CON                      00000003
INTN_CLC2CON                      00000003
INTN_CLC3CON                      00000003
INTN_CLC4CON                      00000003
INTN_CM1CON1                      00000000
INTN_CM2CON1                      00000000
INTPPS                            00001E90
INTPPS0                           00000000
INTPPS1                           00000001
INTPPS2                           00000002
INTPPS3                           00000003
INTPPS4                           00000004
INTPPS5                           00000005
INTP_CLC1CON                      00000004
INTP_CLC2CON                      00000004
INTP_CLC3CON                      00000004
INTP_CLC4CON                      00000004
INTP_CM1CON1                      00000001
INTP_CM2CON1                      00000001
IOCAF                             00001F3F
IOCAF0                            00000000
IOCAF1                            00000001
IOCAF2                            00000002
IOCAF3                            00000003
IOCAF4                            00000004
IOCAF5                            00000005
IOCAN                             00001F3E
IOCAN0                            00000000
IOCAN1                            00000001
IOCAN2                            00000002
IOCAN3                            00000003
IOCAN4                            00000004
IOCAN5                            00000005
IOCAP                             00001F3D
IOCAP0                            00000000
IOCAP1                            00000001
IOCAP2                            00000002
IOCAP3                            00000003
IOCAP4                            00000004
IOCAP5                            00000005
IOCCF                             00001F55
IOCCF0                            00000000
IOCCF1                            00000001
MPASM 5.84  /USERS/CRAIG/MPLABXPROJECTS/AC-D   8-10-2019  21:35:39         PAGE 32


SYMBOL TABLE
  LABEL                             VALUE 

IOCCF2                            00000002
IOCCF3                            00000003
IOCCF4                            00000004
IOCCF5                            00000005
IOCCN                             00001F54
IOCCN0                            00000000
IOCCN1                            00000001
IOCCN2                            00000002
IOCCN3                            00000003
IOCCN4                            00000004
IOCCN5                            00000005
IOCCP                             00001F53
IOCCP0                            00000000
IOCCP1                            00000001
IOCCP2                            00000002
IOCCP3                            00000003
IOCCP4                            00000004
IOCCP5                            00000005
IOCIE                             00000004
IOCIF                             00000004
IOCMD                             00000000
ISR                               00000004
ISR_CD_0                          00000030
ISR_CD_1                          00000020
ISR_CD_2                          00000018
ISR_NO_ZCD                        00000011
LATA                              00000018
LATA0                             00000000
LATA1                             00000001
LATA2                             00000002
LATA4                             00000004
LATA5                             00000005
LATC                              0000001A
LATC0                             00000000
LATC1                             00000001
LATC2                             00000002
LATC3                             00000003
LATC4                             00000004
LATC5                             00000005
LC1D1S0                           00000000
LC1D1S1                           00000001
LC1D1S2                           00000002
LC1D1S3                           00000003
LC1D1S4                           00000004
LC1D1S5                           00000005
LC1D2S0                           00000000
LC1D2S1                           00000001
LC1D2S2                           00000002
LC1D2S3                           00000003
LC1D2S4                           00000004
LC1D2S5                           00000005
LC1D3S0                           00000000
LC1D3S1                           00000001
MPASM 5.84  /USERS/CRAIG/MPLABXPROJECTS/AC-D   8-10-2019  21:35:39         PAGE 33


SYMBOL TABLE
  LABEL                             VALUE 

LC1D3S2                           00000002
LC1D3S3                           00000003
LC1D3S4                           00000004
LC1D3S5                           00000005
LC1D4S0                           00000000
LC1D4S1                           00000001
LC1D4S2                           00000002
LC1D4S3                           00000003
LC1D4S4                           00000004
LC1D4S5                           00000005
LC1EN                             00000007
LC1G1D1N                          00000000
LC1G1D1T                          00000001
LC1G1D2N                          00000002
LC1G1D2T                          00000003
LC1G1D3N                          00000004
LC1G1D3T                          00000005
LC1G1D4N                          00000006
LC1G1D4T                          00000007
LC1G1POL                          00000000
LC1G2D1N                          00000000
LC1G2D1T                          00000001
LC1G2D2N                          00000002
LC1G2D2T                          00000003
LC1G2D3N                          00000004
LC1G2D3T                          00000005
LC1G2D4N                          00000006
LC1G2D4T                          00000007
LC1G2POL                          00000001
LC1G3D1N                          00000000
LC1G3D1T                          00000001
LC1G3D2N                          00000002
LC1G3D2T                          00000003
LC1G3D3N                          00000004
LC1G3D3T                          00000005
LC1G3D4N                          00000006
LC1G3D4T                          00000007
LC1G3POL                          00000002
LC1G4D1N                          00000000
LC1G4D1T                          00000001
LC1G4D2N                          00000002
LC1G4D2T                          00000003
LC1G4D3N                          00000004
LC1G4D3T                          00000005
LC1G4D4N                          00000006
LC1G4D4T                          00000007
LC1G4POL                          00000003
LC1INTN                           00000003
LC1INTP                           00000004
LC1MODE0                          00000000
LC1MODE1                          00000001
LC1MODE2                          00000002
LC1OUT                            00000005
MPASM 5.84  /USERS/CRAIG/MPLABXPROJECTS/AC-D   8-10-2019  21:35:39         PAGE 34


SYMBOL TABLE
  LABEL                             VALUE 

LC1POL                            00000007
LC2D1S0                           00000000
LC2D1S1                           00000001
LC2D1S2                           00000002
LC2D1S3                           00000003
LC2D1S4                           00000004
LC2D1S5                           00000005
LC2D2S0                           00000000
LC2D2S1                           00000001
LC2D2S2                           00000002
LC2D2S3                           00000003
LC2D2S4                           00000004
LC2D2S5                           00000005
LC2D3S0                           00000000
LC2D3S1                           00000001
LC2D3S2                           00000002
LC2D3S3                           00000003
LC2D3S4                           00000004
LC2D3S5                           00000005
LC2D4S0                           00000000
LC2D4S1                           00000001
LC2D4S2                           00000002
LC2D4S3                           00000003
LC2D4S4                           00000004
LC2D4S5                           00000005
LC2EN                             00000007
LC2G1D1N                          00000000
LC2G1D1T                          00000001
LC2G1D2N                          00000002
LC2G1D2T                          00000003
LC2G1D3N                          00000004
LC2G1D3T                          00000005
LC2G1D4N                          00000006
LC2G1D4T                          00000007
LC2G1POL                          00000000
LC2G2D1N                          00000000
LC2G2D1T                          00000001
LC2G2D2N                          00000002
LC2G2D2T                          00000003
LC2G2D3N                          00000004
LC2G2D3T                          00000005
LC2G2D4N                          00000006
LC2G2D4T                          00000007
LC2G2POL                          00000001
LC2G3D1N                          00000000
LC2G3D1T                          00000001
LC2G3D2N                          00000002
LC2G3D2T                          00000003
LC2G3D3N                          00000004
LC2G3D3T                          00000005
LC2G3D4N                          00000006
LC2G3D4T                          00000007
LC2G3POL                          00000002
MPASM 5.84  /USERS/CRAIG/MPLABXPROJECTS/AC-D   8-10-2019  21:35:39         PAGE 35


SYMBOL TABLE
  LABEL                             VALUE 

LC2G4D1N                          00000000
LC2G4D1T                          00000001
LC2G4D2N                          00000002
LC2G4D2T                          00000003
LC2G4D3N                          00000004
LC2G4D3T                          00000005
LC2G4D4N                          00000006
LC2G4D4T                          00000007
LC2G4POL                          00000003
LC2INTN                           00000003
LC2INTP                           00000004
LC2MODE0                          00000000
LC2MODE1                          00000001
LC2MODE2                          00000002
LC2OUT                            00000005
LC2POL                            00000007
LC3D1S0                           00000000
LC3D1S1                           00000001
LC3D1S2                           00000002
LC3D1S3                           00000003
LC3D1S4                           00000004
LC3D1S5                           00000005
LC3D2S0                           00000000
LC3D2S1                           00000001
LC3D2S2                           00000002
LC3D2S3                           00000003
LC3D2S4                           00000004
LC3D2S5                           00000005
LC3D3S0                           00000000
LC3D3S1                           00000001
LC3D3S2                           00000002
LC3D3S3                           00000003
LC3D3S4                           00000004
LC3D3S5                           00000005
LC3D4S0                           00000000
LC3D4S1                           00000001
LC3D4S2                           00000002
LC3D4S3                           00000003
LC3D4S4                           00000004
LC3D4S5                           00000005
LC3EN                             00000007
LC3G1D1N                          00000000
LC3G1D1T                          00000001
LC3G1D2N                          00000002
LC3G1D2T                          00000003
LC3G1D3N                          00000004
LC3G1D3T                          00000005
LC3G1D4N                          00000006
LC3G1D4T                          00000007
LC3G1POL                          00000000
LC3G2D1N                          00000000
LC3G2D1T                          00000001
LC3G2D2N                          00000002
MPASM 5.84  /USERS/CRAIG/MPLABXPROJECTS/AC-D   8-10-2019  21:35:39         PAGE 36


SYMBOL TABLE
  LABEL                             VALUE 

LC3G2D2T                          00000003
LC3G2D3N                          00000004
LC3G2D3T                          00000005
LC3G2D4N                          00000006
LC3G2D4T                          00000007
LC3G2POL                          00000001
LC3G3D1N                          00000000
LC3G3D1T                          00000001
LC3G3D2N                          00000002
LC3G3D2T                          00000003
LC3G3D3N                          00000004
LC3G3D3T                          00000005
LC3G3D4N                          00000006
LC3G3D4T                          00000007
LC3G3POL                          00000002
LC3G4D1N                          00000000
LC3G4D1T                          00000001
LC3G4D2N                          00000002
LC3G4D2T                          00000003
LC3G4D3N                          00000004
LC3G4D3T                          00000005
LC3G4D4N                          00000006
LC3G4D4T                          00000007
LC3G4POL                          00000003
LC3INTN                           00000003
LC3INTP                           00000004
LC3MODE0                          00000000
LC3MODE1                          00000001
LC3MODE2                          00000002
LC3OUT                            00000005
LC3POL                            00000007
LC4D1S0                           00000000
LC4D1S1                           00000001
LC4D1S2                           00000002
LC4D1S3                           00000003
LC4D1S4                           00000004
LC4D1S5                           00000005
LC4D2S0                           00000000
LC4D2S1                           00000001
LC4D2S2                           00000002
LC4D2S3                           00000003
LC4D2S4                           00000004
LC4D2S5                           00000005
LC4D3S0                           00000000
LC4D3S1                           00000001
LC4D3S2                           00000002
LC4D3S3                           00000003
LC4D3S4                           00000004
LC4D3S5                           00000005
LC4D4S0                           00000000
LC4D4S1                           00000001
LC4D4S2                           00000002
LC4D4S3                           00000003
MPASM 5.84  /USERS/CRAIG/MPLABXPROJECTS/AC-D   8-10-2019  21:35:39         PAGE 37


SYMBOL TABLE
  LABEL                             VALUE 

LC4D4S4                           00000004
LC4D4S5                           00000005
LC4EN                             00000007
LC4G1D1N                          00000000
LC4G1D1T                          00000001
LC4G1D2N                          00000002
LC4G1D2T                          00000003
LC4G1D3N                          00000004
LC4G1D3T                          00000005
LC4G1D4N                          00000006
LC4G1D4T                          00000007
LC4G1POL                          00000000
LC4G2D1N                          00000000
LC4G2D1T                          00000001
LC4G2D2N                          00000002
LC4G2D2T                          00000003
LC4G2D3N                          00000004
LC4G2D3T                          00000005
LC4G2D4N                          00000006
LC4G2D4T                          00000007
LC4G2POL                          00000001
LC4G3D1N                          00000000
LC4G3D1T                          00000001
LC4G3D2N                          00000002
LC4G3D2T                          00000003
LC4G3D3N                          00000004
LC4G3D3T                          00000005
LC4G3D4N                          00000006
LC4G3D4T                          00000007
LC4G3POL                          00000002
LC4G4D1N                          00000000
LC4G4D1T                          00000001
LC4G4D2N                          00000002
LC4G4D2T                          00000003
LC4G4D3N                          00000004
LC4G4D3T                          00000005
LC4G4D4N                          00000006
LC4G4D4T                          00000007
LC4G4POL                          00000003
LC4INTN                           00000003
LC4INTP                           00000004
LC4MODE0                          00000000
LC4MODE1                          00000001
LC4MODE2                          00000002
LC4OUT                            00000005
LC4POL                            00000007
LD                                00000006
LFOEN                             00000004
LFOR                              00000004
LSAC0                             00000002
LSAC1                             00000003
LSBD0                             00000004
LSBD1                             00000005
MPASM 5.84  /USERS/CRAIG/MPLABXPROJECTS/AC-D   8-10-2019  21:35:39         PAGE 38


SYMBOL TABLE
  LABEL                             VALUE 

LWLO                              00000005
Load16                            
MAIN_LOOP                         0000019E
MAX_DELAY                         .8192
MC1OUT                            00000000
MC2OUT                            00000001
MFOEN                             00000005
MFOR                              00000005
MLC1OUT                           00000000
MLC2OUT                           00000001
MLC3OUT                           00000002
MLC4OUT                           00000003
MODE0                             00000000
MODE1                             00000001
MODE2                             00000002
MODE3                             00000003
MODE4                             00000004
MSK0                              00000000
MSK1                              00000001
MSK2                              00000002
MSK3                              00000003
MSK4                              00000004
MSK5                              00000005
MSK6                              00000006
MSK7                              00000007
MSSP1MD                           00000004
N1CKS0                            00000000
N1CKS1                            00000001
N1CKS2                            00000002
N1CKS3                            00000003
N1EN                              00000007
N1OUT                             00000005
N1PFM                             00000000
N1POL                             00000004
N1PWS0                            00000005
N1PWS1                            00000006
N1PWS2                            00000007
NCH0                              00000000
NCH1                              00000001
NCH2                              00000002
NCO1ACC                           0000058C
NCO1ACC0                          00000000
NCO1ACC1                          00000001
NCO1ACC10                         00000002
NCO1ACC11                         00000003
NCO1ACC12                         00000004
NCO1ACC13                         00000005
NCO1ACC14                         00000006
NCO1ACC15                         00000007
NCO1ACC16                         00000000
NCO1ACC17                         00000001
NCO1ACC18                         00000002
NCO1ACC19                         00000003
MPASM 5.84  /USERS/CRAIG/MPLABXPROJECTS/AC-D   8-10-2019  21:35:39         PAGE 39


SYMBOL TABLE
  LABEL                             VALUE 

NCO1ACC2                          00000002
NCO1ACC3                          00000003
NCO1ACC4                          00000004
NCO1ACC5                          00000005
NCO1ACC6                          00000006
NCO1ACC7                          00000007
NCO1ACC8                          00000000
NCO1ACC9                          00000001
NCO1ACCH                          0000058D
NCO1ACCL                          0000058C
NCO1ACCU                          0000058E
NCO1CLK                           00000593
NCO1CON                           00000592
NCO1IE                            00000004
NCO1IF                            00000004
NCO1INC                           0000058F
NCO1INC0                          00000000
NCO1INC1                          00000001
NCO1INC10                         00000002
NCO1INC11                         00000003
NCO1INC12                         00000004
NCO1INC13                         00000005
NCO1INC14                         00000006
NCO1INC15                         00000007
NCO1INC16                         00000000
NCO1INC17                         00000001
NCO1INC18                         00000002
NCO1INC19                         00000003
NCO1INC2                          00000002
NCO1INC3                          00000003
NCO1INC4                          00000004
NCO1INC5                          00000005
NCO1INC6                          00000006
NCO1INC7                          00000007
NCO1INC8                          00000000
NCO1INC9                          00000001
NCO1INCH                          00000590
NCO1INCL                          0000058F
NCO1INCU                          00000591
NCOIE                             00000004
NCOIF                             00000004
NCOMD                             00000007
NDIV0                             00000000
NDIV1                             00000001
NDIV2                             00000002
NDIV3                             00000003
NOSC0                             00000004
NOSC1                             00000005
NOSC2                             00000006
NOSCR                             00000003
NOT_A                             00000005
NOT_ADDRESS                       00000005
NOT_BOR                           00000000
MPASM 5.84  /USERS/CRAIG/MPLABXPROJECTS/AC-D   8-10-2019  21:35:39         PAGE 40


SYMBOL TABLE
  LABEL                             VALUE 

NOT_MEMV                          00000001
NOT_PD                            00000003
NOT_POR                           00000001
NOT_RI                            00000002
NOT_RMCLR                         00000003
NOT_RWDT                          00000004
NOT_START_BYTE                    000001BC
NOT_SYNC                          00000002
NOT_T1SYNC                        00000002
NOT_TO                            00000004
NOT_W                             00000002
NOT_WDTWV                         00000005
NOT_WRITE                         00000002
NO_FERR                           000001AD
NSS                               00000000
NVMADR                            0000081A
NVMADRH                           0000081B
NVMADRH0                          00000000
NVMADRH1                          00000001
NVMADRH2                          00000002
NVMADRH3                          00000003
NVMADRH4                          00000004
NVMADRH5                          00000005
NVMADRH6                          00000006
NVMADRL                           0000081A
NVMADRL0                          00000000
NVMADRL1                          00000001
NVMADRL2                          00000002
NVMADRL3                          00000003
NVMADRL4                          00000004
NVMADRL5                          00000005
NVMADRL6                          00000006
NVMADRL7                          00000007
NVMCON1                           0000081E
NVMCON2                           0000081F
NVMDAT                            0000081C
NVMDATH                           0000081D
NVMDATH0                          00000000
NVMDATH1                          00000001
NVMDATH2                          00000002
NVMDATH3                          00000003
NVMDATH4                          00000004
NVMDATH5                          00000005
NVMDATL                           0000081C
NVMDATL0                          00000000
NVMDATL1                          00000001
NVMDATL2                          00000002
NVMDATL3                          00000003
NVMDATL4                          00000004
NVMDATL5                          00000005
NVMDATL6                          00000006
NVMDATL7                          00000007
NVMIE                             00000005
MPASM 5.84  /USERS/CRAIG/MPLABXPROJECTS/AC-D   8-10-2019  21:35:39         PAGE 41


SYMBOL TABLE
  LABEL                             VALUE 

NVMIF                             00000005
NVMMD                             00000002
NVMREGS                           00000006
ODCA0                             00000000
ODCA1                             00000001
ODCA2                             00000002
ODCA4                             00000004
ODCA5                             00000005
ODCC0                             00000000
ODCC1                             00000001
ODCC2                             00000002
ODCC3                             00000003
ODCC4                             00000004
ODCC5                             00000005
ODCONA                            00001F3A
ODCONC                            00001F50
OE1                               00000005
OE2                               00000004
OERR                              00000001
ON_T1CON                          00000000
ON_T2CON                          00000007
ORDY                              00000004
OSCCON1                           0000088D
OSCCON2                           0000088E
OSCCON3                           0000088F
OSCEN                             00000891
OSCFRQ                            00000893
OSCSTAT                           00000890
OSCTUNE                           00000892
OSFIE                             00000007
OSFIF                             00000007
OUTPS0                            00000000
OUTPS1                            00000001
OUTPS2                            00000002
OUTPS3                            00000003
OUT_CCP1CON                       00000005
OUT_CCP2CON                       00000005
OUT_CLC1CON                       00000005
OUT_CLC2CON                       00000005
OUT_CLC3CON                       00000005
OUT_CLC4CON                       00000005
OUT_CM1CON0                       00000006
OUT_CM2CON0                       00000006
OUT_PWM3CON                       00000005
OUT_PWM4CON                       00000005
OUT_PWM5CON                       00000005
OUT_PWM6CON                       00000005
OVRA                              00000004
OVRB                              00000005
OVRC                              00000006
OVRD                              00000007
P                                 00000004
PCH0                              00000000
MPASM 5.84  /USERS/CRAIG/MPLABXPROJECTS/AC-D   8-10-2019  21:35:39         PAGE 42


SYMBOL TABLE
  LABEL                             VALUE 

PCH1                              00000001
PCH2                              00000002
PCIE                              00000006
PCL                               00000002
PCLATH                            0000000A
PCLATH_SHAD                       00001FE7
PCON0                             00000813
PCON1                             00000814
PEIE                              00000006
PEN                               00000002
PIE0                              00000716
PIE1                              00000717
PIE2                              00000718
PIE3                              00000719
PIE4                              0000071A
PIE5                              0000071B
PIE6                              0000071C
PIE7                              0000071D
PIR0                              0000070C
PIR1                              0000070D
PIR2                              0000070E
PIR3                              0000070F
PIR4                              00000710
PIR5                              00000711
PIR6                              00000712
PIR7                              00000713
PLLR                              00000000
PMD0                              00000796
PMD1                              00000797
PMD2                              00000798
PMD3                              00000799
PMD4                              0000079A
PMD5                              0000079B
POLA                              00000000
POLB                              00000001
POLC                              00000002
POLD                              00000003
POL_CLC1POL                       00000007
POL_CLC2POL                       00000007
POL_CLC3POL                       00000007
POL_CLC4POL                       00000007
POL_CM1CON0                       00000004
POL_CM2CON0                       00000004
POL_PWM3CON                       00000004
POL_PWM4CON                       00000004
POL_PWM5CON                       00000004
POL_PWM6CON                       00000004
PORTA                             0000000C
PORTC                             0000000E
PPSLOCK                           00001E8F
PPSLOCKED                         00000000
PR0                               0000059D
PR1                               0000020F
MPASM 5.84  /USERS/CRAIG/MPLABXPROJECTS/AC-D   8-10-2019  21:35:39         PAGE 43


SYMBOL TABLE
  LABEL                             VALUE 

PR2                               0000028D
PSCNT0                            00000000
PSCNT1                            00000001
PSCNT10                           00000002
PSCNT11                           00000003
PSCNT12                           00000004
PSCNT13                           00000005
PSCNT14                           00000006
PSCNT15                           00000007
PSCNT16                           00000000
PSCNT17                           00000001
PSCNT2                            00000002
PSCNT3                            00000003
PSCNT4                            00000004
PSCNT5                            00000005
PSCNT6                            00000006
PSCNT7                            00000007
PSCNT8                            00000000
PSCNT9                            00000001
PSS0                              00000002
PSS1                              00000003
PSYNC                             00000007
PWM3CON                           00000316
PWM3DC                            00000314
PWM3DC0                           00000006
PWM3DC1                           00000007
PWM3DC2                           00000000
PWM3DC3                           00000001
PWM3DC4                           00000002
PWM3DC5                           00000003
PWM3DC6                           00000004
PWM3DC7                           00000005
PWM3DC8                           00000006
PWM3DC9                           00000007
PWM3DCH                           00000315
PWM3DCL                           00000314
PWM3EN                            00000007
PWM3MD                            00000002
PWM3OUT                           00000005
PWM3POL                           00000004
PWM4CON                           0000031A
PWM4DC                            00000318
PWM4DC0                           00000006
PWM4DC1                           00000007
PWM4DC2                           00000000
PWM4DC3                           00000001
PWM4DC4                           00000002
PWM4DC5                           00000003
PWM4DC6                           00000004
PWM4DC7                           00000005
PWM4DC8                           00000006
PWM4DC9                           00000007
PWM4DCH                           00000319
MPASM 5.84  /USERS/CRAIG/MPLABXPROJECTS/AC-D   8-10-2019  21:35:39         PAGE 44


SYMBOL TABLE
  LABEL                             VALUE 

PWM4DCL                           00000318
PWM4EN                            00000007
PWM4MD                            00000003
PWM4OUT                           00000005
PWM4POL                           00000004
PWM5CON                           0000031E
PWM5DC                            0000031C
PWM5DC0                           00000006
PWM5DC1                           00000007
PWM5DC2                           00000000
PWM5DC3                           00000001
PWM5DC4                           00000002
PWM5DC5                           00000003
PWM5DC6                           00000004
PWM5DC7                           00000005
PWM5DC8                           00000006
PWM5DC9                           00000007
PWM5DCH                           0000031D
PWM5DCL                           0000031C
PWM5EN                            00000007
PWM5MD                            00000004
PWM5OUT                           00000005
PWM5POL                           00000004
PWM6CON                           0000038E
PWM6DC                            0000038C
PWM6DC0                           00000006
PWM6DC1                           00000007
PWM6DC2                           00000000
PWM6DC3                           00000001
PWM6DC4                           00000002
PWM6DC5                           00000003
PWM6DC6                           00000004
PWM6DC7                           00000005
PWM6DC8                           00000006
PWM6DC9                           00000007
PWM6DCH                           0000038D
PWM6DCL                           0000038C
PWM6EN                            00000007
PWM6MD                            00000005
PWM6OUT                           00000005
PWM6POL                           00000004
PWMPW0                            00000006
PWMPW1                            00000007
PWMPW2                            00000000
PWMPW3                            00000001
PWMPW4                            00000002
PWMPW5                            00000003
PWMPW6                            00000004
PWMPW7                            00000005
PWMPW8                            00000006
PWMPW9                            00000007
RA0                               00000000
RA0PPS                            00001F10
MPASM 5.84  /USERS/CRAIG/MPLABXPROJECTS/AC-D   8-10-2019  21:35:39         PAGE 45


SYMBOL TABLE
  LABEL                             VALUE 

RA0PPS0                           00000000
RA0PPS1                           00000001
RA0PPS2                           00000002
RA0PPS3                           00000003
RA0PPS4                           00000004
RA1                               00000001
RA1PPS                            00001F11
RA1PPS0                           00000000
RA1PPS1                           00000001
RA1PPS2                           00000002
RA1PPS3                           00000003
RA1PPS4                           00000004
RA2                               00000002
RA2PPS                            00001F12
RA2PPS0                           00000000
RA2PPS1                           00000001
RA2PPS2                           00000002
RA2PPS3                           00000003
RA2PPS4                           00000004
RA3                               00000003
RA3PPS                            00001F13
RA3PPS0                           00000000
RA3PPS1                           00000001
RA3PPS2                           00000002
RA3PPS3                           00000003
RA3PPS4                           00000004
RA4                               00000004
RA4PPS                            00001F14
RA4PPS0                           00000000
RA4PPS1                           00000001
RA4PPS2                           00000002
RA4PPS3                           00000003
RA4PPS4                           00000004
RA5                               00000005
RA5PPS                            00001F15
RA5PPS0                           00000000
RA5PPS1                           00000001
RA5PPS2                           00000002
RA5PPS3                           00000003
RA5PPS4                           00000004
RC0                               00000000
RC0PPS                            00001F20
RC0PPS0                           00000000
RC0PPS1                           00000001
RC0PPS2                           00000002
RC0PPS3                           00000003
RC0PPS4                           00000004
RC1                               00000001
RC1IE                             00000005
RC1IF                             00000005
RC1PPS                            00001F21
RC1PPS0                           00000000
RC1PPS1                           00000001
MPASM 5.84  /USERS/CRAIG/MPLABXPROJECTS/AC-D   8-10-2019  21:35:39         PAGE 46


SYMBOL TABLE
  LABEL                             VALUE 

RC1PPS2                           00000002
RC1PPS3                           00000003
RC1PPS4                           00000004
RC1REG                            00000119
RC1STA                            0000011D
RC2                               00000002
RC2PPS                            00001F22
RC2PPS0                           00000000
RC2PPS1                           00000001
RC2PPS2                           00000002
RC2PPS3                           00000003
RC2PPS4                           00000004
RC3                               00000003
RC3PPS                            00001F23
RC3PPS0                           00000000
RC3PPS1                           00000001
RC3PPS2                           00000002
RC3PPS3                           00000003
RC3PPS4                           00000004
RC4                               00000004
RC4PPS                            00001F24
RC4PPS0                           00000000
RC4PPS1                           00000001
RC4PPS2                           00000002
RC4PPS3                           00000003
RC4PPS4                           00000004
RC5                               00000005
RC5PPS                            00001F25
RC5PPS0                           00000000
RC5PPS1                           00000001
RC5PPS2                           00000002
RC5PPS3                           00000003
RC5PPS4                           00000004
RCEN                              00000003
RCIDL                             00000006
RCREG                             00000119
RCREG1                            00000119
RCSTA                             0000011D
RCSTA1                            0000011D
RCV_CNT_0                         000001C7
RCV_CNT_1                         000001CC
RCV_CNT_2                         000001D1
RCV_CNT_3                         000001D9
RCV_CNT_4                         000001DE
RCV_CNT_5                         000001E2
RCV_CNT_6                         000001E7
RD                                00000000
RD16                              00000001
READ_WRITE                        00000002
REN                               00000006
ROI                               00000005
RSEL0                             00000000
RSEL1                             00000001
MPASM 5.84  /USERS/CRAIG/MPLABXPROJECTS/AC-D   8-10-2019  21:35:39         PAGE 47


SYMBOL TABLE
  LABEL                             VALUE 

RSEL2                             00000002
RSEL3                             00000003
RSEN                              00000001
RX1DTPPS                          00001ECB
RX1DTPPS0                         00000000
RX1DTPPS1                         00000001
RX1DTPPS2                         00000002
RX1DTPPS3                         00000003
RX1DTPPS4                         00000004
RX1DTPPS5                         00000005
RX9                               00000006
RX9D                              00000000
R_NOT_W                           00000002
R_W                               00000002
RcvCnt                            0000002B
Rx                                0000002C
S                                 00000003
SBCDE                             00000002
SBOREN                            00000007
SCIE                              00000005
SCKP                              00000004
SDAHT                             00000003
SEN                               00000000
SENDB                             00000003
SET_CH0                           00000206
SET_CH1                           000001F0
SHUTDOWN                          00000007
SLRA0                             00000000
SLRA1                             00000001
SLRA2                             00000002
SLRA4                             00000004
SLRA5                             00000005
SLRC0                             00000000
SLRC1                             00000001
SLRC2                             00000002
SLRC3                             00000003
SLRC4                             00000004
SLRC5                             00000005
SLRCONA                           00001F3B
SLRCONC                           00001F51
SMP                               00000007
SP1BRG                            0000011B
SP1BRGH                           0000011C
SP1BRGL                           0000011B
SPBRG                             0000011B
SPBRG1                            0000011B
SPBRGH                            0000011C
SPBRGH1                           0000011C
SPBRGL                            0000011B
SPEN                              00000007
SREN                              00000005
SSP1ADD                           0000018D
SSP1BUF                           0000018C
MPASM 5.84  /USERS/CRAIG/MPLABXPROJECTS/AC-D   8-10-2019  21:35:39         PAGE 48


SYMBOL TABLE
  LABEL                             VALUE 

SSP1CLKPPS                        00001EC5
SSP1CLKPPS0                       00000000
SSP1CLKPPS1                       00000001
SSP1CLKPPS2                       00000002
SSP1CLKPPS3                       00000003
SSP1CLKPPS4                       00000004
SSP1CLKPPS5                       00000005
SSP1CON1                          00000190
SSP1CON2                          00000191
SSP1CON3                          00000192
SSP1DATPPS                        00001EC6
SSP1DATPPS0                       00000000
SSP1DATPPS1                       00000001
SSP1DATPPS2                       00000002
SSP1DATPPS3                       00000003
SSP1DATPPS4                       00000004
SSP1DATPPS5                       00000005
SSP1IE                            00000000
SSP1IF                            00000000
SSP1MSK                           0000018E
SSP1SSPPS                         00001EC7
SSP1SSPPS0                        00000000
SSP1SSPPS1                        00000001
SSP1SSPPS2                        00000002
SSP1SSPPS3                        00000003
SSP1SSPPS4                        00000004
SSP1SSPPS5                        00000005
SSP1STAT                          0000018F
SSPEN                             00000005
SSPM0                             00000000
SSPM1                             00000001
SSPM2                             00000002
SSPM3                             00000003
SSPOV                             00000006
START                             00000168
STATE                             00000002
STATUS                            00000003
STATUS_SHAD                       00001FE4
STATUS_SHAD0                      00000000
STATUS_SHAD1                      00000001
STATUS_SHAD2                      00000002
STKOVF                            00000007
STKPTR                            00001FED
STKPTR0                           00000000
STKPTR1                           00000001
STKPTR2                           00000002
STKPTR3                           00000003
STKPTR4                           00000004
STKUNF                            00000006
STRA                              00000000
STRB                              00000001
STRC                              00000002
STRD                              00000003
MPASM 5.84  /USERS/CRAIG/MPLABXPROJECTS/AC-D   8-10-2019  21:35:39         PAGE 49


SYMBOL TABLE
  LABEL                             VALUE 

SWDTEN                            00000000
SYNC_CM1CON0                      00000000
SYNC_CM2CON0                      00000000
SYNC_TX1STA                       00000004
SYNC_TXSTA                        00000004
SYNC_TXSTA1                       00000004
SYSCMD                            00000007
Sub16ReLmV                        
Sub16ReVmV                        
T016BIT                           00000004
T0ASYNC                           00000004
T0CKIPPS                          00001E91
T0CKIPPS0                         00000000
T0CKIPPS1                         00000001
T0CKIPPS2                         00000002
T0CKIPPS3                         00000003
T0CKIPPS4                         00000004
T0CKIPPS5                         00000005
T0CKPS0                           00000000
T0CKPS1                           00000001
T0CKPS2                           00000002
T0CKPS3                           00000003
T0CON0                            0000059E
T0CON1                            0000059F
T0CS0                             00000005
T0CS1                             00000006
T0CS2                             00000007
T0EN                              00000007
T0OUT                             00000005
T0OUTPS0                          00000000
T0OUTPS1                          00000001
T0OUTPS2                          00000002
T0OUTPS3                          00000003
T0PR0                             00000000
T0PR1                             00000001
T0PR2                             00000002
T0PR3                             00000003
T0PR4                             00000004
T0PR5                             00000005
T0PR6                             00000006
T0PR7                             00000007
T0PS0                             00000000
T0PS1                             00000001
T0PS2                             00000002
T0PS3                             00000003
T1CKIPPS                          00001E92
T1CKIPPS0                         00000000
T1CKIPPS1                         00000001
T1CKIPPS2                         00000002
T1CKIPPS3                         00000003
T1CKIPPS4                         00000004
T1CKIPPS5                         00000005
T1CKPS0                           00000004
MPASM 5.84  /USERS/CRAIG/MPLABXPROJECTS/AC-D   8-10-2019  21:35:39         PAGE 50


SYMBOL TABLE
  LABEL                             VALUE 

T1CKPS1                           00000005
T1CLK                             00000211
T1CON                             0000020E
T1CS0                             00000000
T1CS1                             00000001
T1CS2                             00000002
T1CS3                             00000003
T1GATE                            00000210
T1GCON                            0000020F
T1GE                              00000007
T1GGO                             00000003
T1GGO_NOT_DONE                    00000003
T1GPOL                            00000006
T1GPPS                            00001E93
T1GPPS0                           00000000
T1GPPS1                           00000001
T1GPPS2                           00000002
T1GPPS3                           00000003
T1GPPS4                           00000004
T1GPPS5                           00000005
T1GSPM                            00000004
T1GSS0                            00000000
T1GSS1                            00000001
T1GSS2                            00000002
T1GSS3                            00000003
T1GSS4                            00000004
T1GTM                             00000005
T1GVAL                            00000002
T1RD16                            00000001
T2CKPOL                           00000006
T2CKPS0                           00000004
T2CKPS1                           00000005
T2CKPS2                           00000006
T2CKSYNC                          00000005
T2CLKCON                          00000290
T2CON                             0000028E
T2CS0                             00000000
T2CS1                             00000001
T2CS2                             00000002
T2CS3                             00000003
T2HLT                             0000028F
T2INPPS                           00001E9C
T2INPPS0                          00000000
T2INPPS1                          00000001
T2INPPS2                          00000002
T2INPPS3                          00000003
T2INPPS4                          00000004
T2INPPS5                          00000005
T2MODE0                           00000000
T2MODE1                           00000001
T2MODE2                           00000002
T2MODE3                           00000003
T2MODE4                           00000004
MPASM 5.84  /USERS/CRAIG/MPLABXPROJECTS/AC-D   8-10-2019  21:35:39         PAGE 51


SYMBOL TABLE
  LABEL                             VALUE 

T2ON                              00000007
T2OUTPS0                          00000000
T2OUTPS1                          00000001
T2OUTPS2                          00000002
T2OUTPS3                          00000003
T2PR                              0000028D
T2PSYNC                           00000007
T2RSEL0                           00000000
T2RSEL1                           00000001
T2RSEL2                           00000002
T2RSEL3                           00000003
T2RST                             00000291
T2TMR                             0000028C
TMR0                              0000059C
TMR0H                             0000059D
TMR0H0                            00000000
TMR0H1                            00000001
TMR0H2                            00000002
TMR0H3                            00000003
TMR0H4                            00000004
TMR0H5                            00000005
TMR0H6                            00000006
TMR0H7                            00000007
TMR0IE                            00000005
TMR0IF                            00000005
TMR0L                             0000059C
TMR0L0                            00000000
TMR0L1                            00000001
TMR0L2                            00000002
TMR0L3                            00000003
TMR0L4                            00000004
TMR0L5                            00000005
TMR0L6                            00000006
TMR0L7                            00000007
TMR0MD                            00000000
TMR1                              0000020C
TMR10                             00000000
TMR11                             00000001
TMR110                            00000002
TMR111                            00000003
TMR112                            00000004
TMR113                            00000005
TMR114                            00000006
TMR115                            00000007
TMR12                             00000002
TMR13                             00000003
TMR14                             00000004
TMR15                             00000005
TMR16                             00000006
TMR17                             00000007
TMR18                             00000000
TMR19                             00000001
TMR1CLK                           00000211
MPASM 5.84  /USERS/CRAIG/MPLABXPROJECTS/AC-D   8-10-2019  21:35:39         PAGE 52


SYMBOL TABLE
  LABEL                             VALUE 

TMR1GATE                          00000210
TMR1GIE                           00000000
TMR1GIF                           00000000
TMR1H                             0000020D
TMR1H0                            00000000
TMR1H1                            00000001
TMR1H2                            00000002
TMR1H3                            00000003
TMR1H4                            00000004
TMR1H5                            00000005
TMR1H6                            00000006
TMR1H7                            00000007
TMR1IE                            00000000
TMR1IF                            00000000
TMR1L                             0000020C
TMR1L0                            00000000
TMR1L1                            00000001
TMR1L2                            00000002
TMR1L3                            00000003
TMR1L4                            00000004
TMR1L5                            00000005
TMR1L6                            00000006
TMR1L7                            00000007
TMR1MD                            00000001
TMR1ON                            00000000
TMR2                              0000028C
TMR2IE                            00000001
TMR2IF                            00000001
TMR2MD                            00000002
TMR2ON                            00000007
TOSH                              00001FEF
TOSH0                             00000000
TOSH1                             00000001
TOSH2                             00000002
TOSH3                             00000003
TOSH4                             00000004
TOSH5                             00000005
TOSH6                             00000006
TOSH7                             00000007
TOSL                              00001FEE
TOSL0                             00000000
TOSL1                             00000001
TOSL2                             00000002
TOSL3                             00000003
TOSL4                             00000004
TOSL5                             00000005
TOSL6                             00000006
TOSL7                             00000007
TRISA                             00000012
TRISA0                            00000000
TRISA1                            00000001
TRISA2                            00000002
TRISA4                            00000004
MPASM 5.84  /USERS/CRAIG/MPLABXPROJECTS/AC-D   8-10-2019  21:35:39         PAGE 53


SYMBOL TABLE
  LABEL                             VALUE 

TRISA5                            00000005
TRISC                             00000014
TRISC0                            00000000
TRISC1                            00000001
TRISC2                            00000002
TRISC3                            00000003
TRISC4                            00000004
TRISC5                            00000005
TRMT                              00000001
TSEN                              00000005
TSRNG                             00000004
TX1CKPPS                          00001ECC
TX1CKPPS0                         00000000
TX1CKPPS1                         00000001
TX1CKPPS2                         00000002
TX1CKPPS3                         00000003
TX1CKPPS4                         00000004
TX1CKPPS5                         00000005
TX1IE                             00000004
TX1IF                             00000004
TX1REG                            0000011A
TX1STA                            0000011E
TX9                               00000006
TX9D                              00000000
TXEN                              00000005
TXREG                             0000011A
TXREG1                            0000011A
TXSTA                             0000011E
TXSTA1                            0000011E
Tmp0                              00000000
Tmp1                              00000001
Tmp16a                            00000024
Tmp16b                            00000026
Tmp2                              00000002
TurnOffDelay                      0000000D
TurnOn0                           00000009
TurnOn1                           0000000A
UA                                00000001
UART1MD                           00000006
UD_BOTH_MAX                       0000010A
UD_BOTH_NE_0                      000000E2
UD_CH0_LT_CH1                     00000131
UD_CH0_NE_0                       000000B9
UD_CH0_NE_CH1                     0000010D
UD_CH0_NE_CH1_MAX                 0000015C
UD_CH1_NE_0                       0000009D
UD_ENDING                         00000152
UNDER_10                          00000044
W                                 00000000
WAIT                              00000048
WCOL                              00000007
WDTCON0                           0000080C
WDTCON1                           0000080D
MPASM 5.84  /USERS/CRAIG/MPLABXPROJECTS/AC-D   8-10-2019  21:35:39         PAGE 54


SYMBOL TABLE
  LABEL                             VALUE 

WDTCS0                            00000004
WDTCS1                            00000005
WDTCS2                            00000006
WDTPS0                            00000001
WDTPS1                            00000002
WDTPS2                            00000003
WDTPS3                            00000004
WDTPS4                            00000005
WDTPSCNT0                         00000000
WDTPSCNT1                         00000001
WDTPSCNT10                        00000002
WDTPSCNT11                        00000003
WDTPSCNT12                        00000004
WDTPSCNT13                        00000005
WDTPSCNT14                        00000006
WDTPSCNT15                        00000007
WDTPSCNT16                        00000000
WDTPSCNT17                        00000001
WDTPSCNT2                         00000002
WDTPSCNT3                         00000003
WDTPSCNT4                         00000004
WDTPSCNT5                         00000005
WDTPSCNT6                         00000006
WDTPSCNT7                         00000007
WDTPSCNT8                         00000000
WDTPSCNT9                         00000001
WDTPSH                            0000080F
WDTPSL                            0000080E
WDTSEN                            00000000
WDTSTATE                          00000002
WDTTMR                            00000810
WDTTMR0                           00000003
WDTTMR1                           00000004
WDTTMR2                           00000005
WDTTMR3                           00000006
WDTWINDOW0                        00000000
WDTWINDOW1                        00000001
WDTWINDOW2                        00000002
WINDOW0                           00000000
WINDOW1                           00000001
WINDOW2                           00000002
WPUA                              00001F39
WPUA0                             00000000
WPUA1                             00000001
WPUA2                             00000002
WPUA3                             00000003
WPUA4                             00000004
WPUA5                             00000005
WPUC                              00001F4F
WPUC0                             00000000
WPUC1                             00000001
WPUC2                             00000002
WPUC3                             00000003
MPASM 5.84  /USERS/CRAIG/MPLABXPROJECTS/AC-D   8-10-2019  21:35:39         PAGE 55


SYMBOL TABLE
  LABEL                             VALUE 

WPUC4                             00000004
WPUC5                             00000005
WR                                00000001
WREG                              00000009
WREG_SHAD                         00001FE5
WREN                              00000002
WRERR                             00000003
WUE                               00000001
Z                                 00000002
ZCDCON                            0000091F
ZCDIE                             00000006
ZCDIF                             00000006
ZCDINTN                           00000000
ZCDINTP                           00000001
ZCDMD                             00000000
ZCDOUT                            00000005
ZCDPOL                            00000004
ZCDSEN                            00000007
_BBEN_OFF                         00003FFF
_BBEN_ON                          00003FF7
_BBSIZE_BB16K                     00003FFA
_BBSIZE_BB1K                      00003FFE
_BBSIZE_BB2K                      00003FFD
_BBSIZE_BB32K                     00003FF9
_BBSIZE_BB4K                      00003FFC
_BBSIZE_BB512                     00003FFF
_BBSIZE_BB64K                     00003FF8
_BBSIZE_BB8K                      00003FFB
_BOREN_NSLEEP                     00003FBF
_BOREN_OFF                        00003F3F
_BOREN_ON                         00003FFF
_BOREN_SBOREN                     00003F7F
_BORV_HI                          00003DFF
_BORV_LO                          00003FFF
_CLKOUTEN_OFF                     00003FFF
_CLKOUTEN_ON                      00003EFF
_CONFIG1                          00008007
_CONFIG2                          00008008
_CONFIG3                          00008009
_CONFIG4                          0000800A
_CONFIG5                          0000800B
_CP_OFF                           00003FFF
_CP_ON                            00003FFE
_CSWEN_OFF                        000037FF
_CSWEN_ON                         00003FFF
_DEVID1                           00008006
_FCMEN_OFF                        00001FFF
_FCMEN_ON                         00003FFF
_FEXTOSC_ECH                      00003FFF
_FEXTOSC_ECL                      00003FFD
_FEXTOSC_ECM                      00003FFE
_FEXTOSC_HS                       00003FFA
_FEXTOSC_LP                       00003FF8
MPASM 5.84  /USERS/CRAIG/MPLABXPROJECTS/AC-D   8-10-2019  21:35:39         PAGE 56


SYMBOL TABLE
  LABEL                             VALUE 

_FEXTOSC_OFF                      00003FFC
_FEXTOSC_Reserved                 00003FFB
_FEXTOSC_XT                       00003FF9
_IDLOC0                           00008000
_IDLOC1                           00008001
_IDLOC2                           00008002
_IDLOC3                           00008003
_LPBOREN_OFF                      00003FFF
_LPBOREN_ON                       00003FDF
_LVP_OFF                          00001FFF
_LVP_ON                           00003FFF
_MCLRE_OFF                        00003FFE
_MCLRE_ON                         00003FFF
_PPS1WAY_OFF                      000037FF
_PPS1WAY_ON                       00003FFF
_PWRTE_OFF                        00003FFF
_PWRTE_ON                         00003FFD
_RSTOSC_EXT1X                     00003FFF
_RSTOSC_EXT4X                     00003FAF
_RSTOSC_HFINT1                    00003FEF
_RSTOSC_HFINT32                   00003F8F
_RSTOSC_HFINTPLL                  00003F9F
_RSTOSC_LFINT                     00003FDF
_RSTOSC_Reserved                  00003FBF
_SAFEN_OFF                        00003FFF
_SAFEN_ON                         00003FEF
_STVREN_OFF                       00002FFF
_STVREN_ON                        00003FFF
_WDTCCS_HFINTOSC                  00000FFF
_WDTCCS_LFINTOSC                  000007FF
_WDTCCS_Reserved                  000017FF
_WDTCCS_SC                        00003FFF
_WDTCPS_WDTCPS_0                  00003FE0
_WDTCPS_WDTCPS_1                  00003FE1
_WDTCPS_WDTCPS_10                 00003FEA
_WDTCPS_WDTCPS_11                 00003FEB
_WDTCPS_WDTCPS_12                 00003FEC
_WDTCPS_WDTCPS_13                 00003FED
_WDTCPS_WDTCPS_14                 00003FEE
_WDTCPS_WDTCPS_15                 00003FEF
_WDTCPS_WDTCPS_16                 00003FF0
_WDTCPS_WDTCPS_17                 00003FF1
_WDTCPS_WDTCPS_18                 00003FF2
_WDTCPS_WDTCPS_19                 00003FF3
_WDTCPS_WDTCPS_2                  00003FE2
_WDTCPS_WDTCPS_20                 00003FF4
_WDTCPS_WDTCPS_21                 00003FF5
_WDTCPS_WDTCPS_22                 00003FF6
_WDTCPS_WDTCPS_23                 00003FF7
_WDTCPS_WDTCPS_24                 00003FF8
_WDTCPS_WDTCPS_25                 00003FF9
_WDTCPS_WDTCPS_26                 00003FFA
_WDTCPS_WDTCPS_27                 00003FFB
MPASM 5.84  /USERS/CRAIG/MPLABXPROJECTS/AC-D   8-10-2019  21:35:39         PAGE 57


SYMBOL TABLE
  LABEL                             VALUE 

_WDTCPS_WDTCPS_28                 00003FFC
_WDTCPS_WDTCPS_29                 00003FFD
_WDTCPS_WDTCPS_3                  00003FE3
_WDTCPS_WDTCPS_30                 00003FFE
_WDTCPS_WDTCPS_31                 00003FFF
_WDTCPS_WDTCPS_4                  00003FE4
_WDTCPS_WDTCPS_5                  00003FE5
_WDTCPS_WDTCPS_6                  00003FE6
_WDTCPS_WDTCPS_7                  00003FE7
_WDTCPS_WDTCPS_8                  00003FE8
_WDTCPS_WDTCPS_9                  00003FE9
_WDTCWS_WDTCWS_0                  000038FF
_WDTCWS_WDTCWS_1                  000039FF
_WDTCWS_WDTCWS_2                  00003AFF
_WDTCWS_WDTCWS_3                  00003BFF
_WDTCWS_WDTCWS_4                  00003CFF
_WDTCWS_WDTCWS_5                  00003DFF
_WDTCWS_WDTCWS_6                  00003EFF
_WDTCWS_WDTCWS_7                  00003FFF
_WDTE_NSLEEP                      00003FDF
_WDTE_OFF                         00003F9F
_WDTE_ON                          00003FFF
_WDTE_SWDTEN                      00003FBF
_WRTAPP_OFF                       00003FFF
_WRTAPP_ON                        00003F7F
_WRTB_OFF                         00003FFF
_WRTB_ON                          00003EFF
_WRTC_OFF                         00003FFF
_WRTC_ON                          00003DFF
_WRTSAF_OFF                       00003FFF
_WRTSAF_ON                        000037FF
_ZCD_OFF                          00003FFF
_ZCD_ON                           00003BFF
__16LF15323                       00000001
__DEBUG                           
__MPLAB_DEBUGGER_SIMULATOR        1
compare16s                        00000061
complementDelays                  0000006C
hexToNibble                       00000057
nibbleToHex                       0000003A
sendChar                          00000047
sendInt                           0000004D
updateDelays                      00000073

Errors   :     0
Warnings :     0 reported,     0 suppressed
Messages :    44 reported,     0 suppressed

